00009000  E9B9010000        jmp dword 0x91be
00009005  0000              add [eax],al
00009007  0000              add [eax],al
00009009  0000              add [eax],al
0000900B  0021              add [ecx],ah
0000900D  0000              add [eax],al
0000900F  0000              add [eax],al
00009011  B84000FFFF        mov eax,0xffff0040
00009016  00800BD34700      add [eax+0x47d30b],al
0000901C  2000              and [eax],al
0000901E  0000              add [eax],al
00009020  00D0              add al,dl
00009022  40                inc eax
00009023  00FF              add bh,bh
00009025  0F0000            sldt [eax]
00009028  00B240002D00      add [edx+0x2d0040],dh
0000902E  0000              add [eax],al
00009030  00B840001700      add [eax+0x170040],bh
00009036  0000              add [eax],al
00009038  008200004001      add [edx+0x1400000],al
0000903E  0000              add [eax],al
00009040  008900001500      add [ecx+0x150000],cl
00009046  0000              add [eax],al
00009048  009C4000470000    add [eax+eax*2+0x4700],bl
0000904F  0000              add [eax],al
00009051  0000              add [eax],al
00009053  0000              add [eax],al
00009055  0000              add [eax],al
00009057  00FF              add bh,bh
00009059  0F0000            sldt [eax]
0000905C  2100              and [eax],eax
0000905E  0000              add [eax],al
00009060  0000              add [eax],al
00009062  0000              add [eax],al
00009064  0000              add [eax],al
00009066  0000              add [eax],al
00009068  0000              add [eax],al
0000906A  0000              add [eax],al
0000906C  0000              add [eax],al
0000906E  0000              add [eax],al
00009070  0000              add [eax],al
00009072  0000              add [eax],al
00009074  0000              add [eax],al
00009076  0000              add [eax],al
00009078  0000              add [eax],al
0000907A  0000              add [eax],al
0000907C  0000              add [eax],al
0000907E  0000              add [eax],al
00009080  0000              add [eax],al
00009082  0000              add [eax],al
00009084  0000              add [eax],al
00009086  0000              add [eax],al
00009088  0000              add [eax],al
0000908A  0000              add [eax],al
0000908C  0000              add [eax],al
0000908E  0000              add [eax],al
00009090  0000              add [eax],al
00009092  0000              add [eax],al
00009094  0000              add [eax],al
00009096  0000              add [eax],al
00009098  0000              add [eax],al
0000909A  0000              add [eax],al
0000909C  0000              add [eax],al
0000909E  0000              add [eax],al
000090A0  0000              add [eax],al
000090A2  0000              add [eax],al
000090A4  0000              add [eax],al
000090A6  0000              add [eax],al
000090A8  0000              add [eax],al
000090AA  0000              add [eax],al
000090AC  0000              add [eax],al
000090AE  0000              add [eax],al
000090B0  0000              add [eax],al
000090B2  0000              add [eax],al
000090B4  0000              add [eax],al
000090B6  0000              add [eax],al
000090B8  0000              add [eax],al
000090BA  0000              add [eax],al
000090BC  0000              add [eax],al
000090BE  0000              add [eax],al
000090C0  0000              add [eax],al
000090C2  0000              add [eax],al
000090C4  0000              add [eax],al
000090C6  0000              add [eax],al
000090C8  0000              add [eax],al
000090CA  0000              add [eax],al
000090CC  0000              add [eax],al
000090CE  0000              add [eax],al
000090D0  0000              add [eax],al
000090D2  0000              add [eax],al
000090D4  0000              add [eax],al
000090D6  0000              add [eax],al
000090D8  0000              add [eax],al
000090DA  0000              add [eax],al
000090DC  0000              add [eax],al
000090DE  0000              add [eax],al
000090E0  0000              add [eax],al
000090E2  0000              add [eax],al
000090E4  0000              add [eax],al
000090E6  0000              add [eax],al
000090E8  0000              add [eax],al
000090EA  0000              add [eax],al
000090EC  0000              add [eax],al
000090EE  0000              add [eax],al
000090F0  0000              add [eax],al
000090F2  0000              add [eax],al
000090F4  0000              add [eax],al
000090F6  0000              add [eax],al
000090F8  0000              add [eax],al
000090FA  0000              add [eax],al
000090FC  0000              add [eax],al
000090FE  0000              add [eax],al
00009100  0000              add [eax],al
00009102  0000              add [eax],al
00009104  0000              add [eax],al
00009106  0000              add [eax],al
00009108  0000              add [eax],al
0000910A  0000              add [eax],al
0000910C  0000              add [eax],al
0000910E  0000              add [eax],al
00009110  0000              add [eax],al
00009112  0000              add [eax],al
00009114  0000              add [eax],al
00009116  0000              add [eax],al
00009118  0000              add [eax],al
0000911A  0000              add [eax],al
0000911C  0000              add [eax],al
0000911E  0000              add [eax],al
00009120  0000              add [eax],al
00009122  0000              add [eax],al
00009124  0000              add [eax],al
00009126  0000              add [eax],al
00009128  0000              add [eax],al
0000912A  0000              add [eax],al
0000912C  0000              add [eax],al
0000912E  0000              add [eax],al
00009130  0000              add [eax],al
00009132  0000              add [eax],al
00009134  0000              add [eax],al
00009136  0000              add [eax],al
00009138  0000              add [eax],al
0000913A  0000              add [eax],al
0000913C  0000              add [eax],al
0000913E  0000              add [eax],al
00009140  0000              add [eax],al
00009142  0000              add [eax],al
00009144  0000              add [eax],al
00009146  0000              add [eax],al
00009148  0000              add [eax],al
0000914A  0000              add [eax],al
0000914C  0000              add [eax],al
0000914E  0000              add [eax],al
00009150  0000              add [eax],al
00009152  0000              add [eax],al
00009154  0000              add [eax],al
00009156  0000              add [eax],al
00009158  0000              add [eax],al
0000915A  0000              add [eax],al
0000915C  0000              add [eax],al
0000915E  0000              add [eax],al
00009160  0000              add [eax],al
00009162  0000              add [eax],al
00009164  0000              add [eax],al
00009166  0000              add [eax],al
00009168  0000              add [eax],al
0000916A  0000              add [eax],al
0000916C  0000              add [eax],al
0000916E  0000              add [eax],al
00009170  0000              add [eax],al
00009172  0000              add [eax],al
00009174  0000              add [eax],al
00009176  0000              add [eax],al
00009178  0000              add [eax],al
0000917A  0000              add [eax],al
0000917C  0000              add [eax],al
0000917E  0000              add [eax],al
00009180  0000              add [eax],al
00009182  0000              add [eax],al
00009184  0000              add [eax],al
00009186  0000              add [eax],al
00009188  0000              add [eax],al
0000918A  0000              add [eax],al
0000918C  0000              add [eax],al
0000918E  0000              add [eax],al
00009190  0000              add [eax],al
00009192  40                inc eax
00009193  01FF              add edi,edi
00009195  0000              add [eax],al
00009197  0044544F          add [esp+edx*2+0x4f],al
0000919B  53                push ebx
0000919C  2100              and [eax],eax
0000919E  48                dec eax
0000919F  656C              gs insb
000091A1  6C                insb
000091A2  6F                outsd
000091A3  20576F            and [edi+0x6f],dl
000091A6  726C              jc 0x9214
000091A8  642100            and [fs:eax],eax
000091AB  57                push edi
000091AC  65636C6F6D        arpl [gs:edi+ebp*2+0x6d],bp
000091B1  65206261          and [gs:edx+0x61],ah
000091B5  636B20            arpl [ebx+0x20],bp
000091B8  0000              add [eax],al
000091BA  0000              add [eax],al
000091BC  8CC8              mov eax,cs
000091BE  8ED8              mov ds,eax
000091C0  8EC0              mov es,eax
000091C2  8ED0              mov ss,eax
000091C4  BC007C66BE        mov esp,0xbe667c00
000091C9  DC92000066BF      fcom qword [edx-0x409a0000]
000091CF  0C90              or al,0x90
000091D1  0000              add [eax],al
000091D3  E8E20066BE        call dword 0xbe6692ba
000091D8  98                cwde
000091D9  91                xchg eax,ecx
000091DA  0000              add [eax],al
000091DC  66BF1C90          mov di,0x901c
000091E0  0000              add [eax],al
000091E2  E8D30066BE        call dword 0xbe6692ba
000091E7  48                dec eax
000091E8  93                xchg eax,ebx
000091E9  0000              add [eax],al
000091EB  66BF2490          mov di,0x9024
000091EF  0000              add [eax],al
000091F1  E8C40066BE        call dword 0xbe6692ba
000091F6  1893000066BF      sbb [ebx-0x409a0000],dl
000091FC  2C90              sub al,0x90
000091FE  0000              add [eax],al
00009200  E8B50066BE        call dword 0xbe6692ba
00009205  48                dec eax
00009206  A3000066BF        mov [0xbf660000],eax
0000920B  3490              xor al,0x90
0000920D  0000              add [eax],al
0000920F  E8A60066BE        call dword 0xbe6692ba
00009214  70A7              jo 0x91bd
00009216  0000              add [eax],al
00009218  66BF48A3          mov di,0xa348
0000921C  0000              add [eax],al
0000921E  E8970066BE        call dword 0xbe6692ba
00009223  60                pushad
00009224  A3000066BF        mov [0xbf660000],eax
00009229  50                push eax
0000922A  A30000E888        mov [0x88e80000],eax
0000922F  0066BE            add [esi-0x42],ah
00009232  70A3              jo 0x91d7
00009234  0000              add [eax],al
00009236  66BF58A3          mov di,0xa358
0000923A  0000              add [eax],al
0000923C  E8790066BE        call dword 0xbe6692ba
00009241  54                push esp
00009242  90                nop
00009243  0000              add [eax],al
00009245  66BF3C90          mov di,0x903c
00009249  0000              add [eax],al
0000924B  E86A0066BE        call dword 0xbe6692ba
00009250  0093000066BF      add [ebx-0x409a0000],dl
00009256  44                inc esp
00009257  90                nop
00009258  0000              add [eax],al
0000925A  E85B0066B8        call dword 0xb86692ba
0000925F  0000              add [eax],al
00009261  0000              add [eax],al
00009263  8CC8              mov eax,cs
00009265  66C1E004          shl ax,byte 0x4
00009269  66050490          add ax,0x9004
0000926D  0000              add [eax],al
0000926F  66A34E900F01      mov [0x10f904e],ax
00009275  16                push ss
00009276  4C                dec esp
00009277  90                nop
00009278  FA                cli
00009279  E492              in al,0x92
0000927B  0C02              or al,0x2
0000927D  E692              out 0x92,al
0000927F  0F20C0            mov eax,cr0
00009282  6683C801          or ax,byte +0x1
00009286  0F22C0            mov cr0,eax
00009289  6A21              push byte +0x21
0000928B  68FF0F6A09        push dword 0x96a0fff
00009290  6A00              push byte +0x0
00009292  CB                retf
00009293  8CC8              mov eax,cs
00009295  8ED8              mov ds,eax
00009297  8EC0              mov es,eax
00009299  8ED0              mov ss,eax
0000929B  BC007CE492        mov esp,0x92e47c00
000092A0  24FD              and al,0xfd
000092A2  E692              out 0x92,al
000092A4  FB                sti
000092A5  BDAB91B90C        mov ebp,0xcb991ab
000092AA  00BA0000B801      add [edx+0x1b80000],bh
000092B0  13BB0700CD10      adc edi,[ebx+0x10cd0007]
000092B6  EBFE              jmp short 0x92b6
000092B8  6650              push ax
000092BA  66B80000          mov ax,0x0
000092BE  0000              add [eax],al
000092C0  8CC8              mov eax,cs
000092C2  66C1E004          shl ax,byte 0x4
000092C6  6601F0            add ax,si
000092C9  67894702          mov [bx+0x2],eax
000092CD  66C1E810          shr ax,byte 0x10
000092D1  67884704          mov [bx+0x4],al
000092D5  67886707          mov [bx+0x7],ah
000092D9  6658              pop ax
000092DB  C3                ret
000092DC  66B81200          mov ax,0x12
000092E0  8EE8              mov gs,eax
000092E2  66B81A00          mov ax,0x1a
000092E6  8ED8              mov ds,eax
000092E8  66B82100          mov ax,0x21
000092EC  8ED0              mov ss,eax
000092EE  B8FF0F0000        mov eax,0xfff
000092F3  89C4              mov esp,eax
000092F5  EA000000004000    jmp dword 0x40:0x0
000092FC  EBFE              jmp short 0x92fc
000092FE  0000              add [eax],al
00009300  BD06000000        mov ebp,0x6
00009305  B60D              mov dh,0xd
00009307  B223              mov dl,0x23
00009309  66BB0C00          mov bx,0xc
0000930D  9A000000002900    call dword 0x29:0x0
00009314  EBFE              jmp short 0x9314
00009316  0000              add [eax],al
00009318  6651              push cx
0000931A  50                push eax
0000931B  55                push ebp
0000931C  57                push edi
0000931D  3E8A4D00          mov cl,[ds:ebp+0x0]
00009321  80F900            cmp cl,0x0
00009324  741A              jz 0x9340
00009326  B850000000        mov eax,0x50
0000932B  F6E6              mul dh
0000932D  00D0              add al,dl
0000932F  D1E0              shl eax,1
00009331  89C7              mov edi,eax
00009333  88DC              mov ah,bl
00009335  88C8              mov al,cl
00009337  65668907          mov [gs:edi],ax
0000933B  45                inc ebp
0000933C  FEC2              inc dl
0000933E  EBDD              jmp short 0x931d
00009340  5F                pop edi
00009341  5D                pop ebp
00009342  58                pop eax
00009343  6659              pop cx
00009345  CB                retf
00009346  0000              add [eax],al
00009348  0000              add [eax],al
0000934A  0000              add [eax],al
0000934C  0000              add [eax],al
0000934E  0000              add [eax],al
00009350  0000              add [eax],al
00009352  0000              add [eax],al
00009354  0000              add [eax],al
00009356  0000              add [eax],al
00009358  0000              add [eax],al
0000935A  0000              add [eax],al
0000935C  0000              add [eax],al
0000935E  0000              add [eax],al
00009360  0000              add [eax],al
00009362  0000              add [eax],al
00009364  0000              add [eax],al
00009366  0000              add [eax],al
00009368  0000              add [eax],al
0000936A  0000              add [eax],al
0000936C  0000              add [eax],al
0000936E  0000              add [eax],al
00009370  0000              add [eax],al
00009372  0000              add [eax],al
00009374  0000              add [eax],al
00009376  0000              add [eax],al
00009378  0000              add [eax],al
0000937A  0000              add [eax],al
0000937C  0000              add [eax],al
0000937E  0000              add [eax],al
00009380  0000              add [eax],al
00009382  0000              add [eax],al
00009384  0000              add [eax],al
00009386  0000              add [eax],al
00009388  0000              add [eax],al
0000938A  0000              add [eax],al
0000938C  0000              add [eax],al
0000938E  0000              add [eax],al
00009390  0000              add [eax],al
00009392  0000              add [eax],al
00009394  0000              add [eax],al
00009396  0000              add [eax],al
00009398  0000              add [eax],al
0000939A  0000              add [eax],al
0000939C  0000              add [eax],al
0000939E  0000              add [eax],al
000093A0  0000              add [eax],al
000093A2  0000              add [eax],al
000093A4  0000              add [eax],al
000093A6  0000              add [eax],al
000093A8  0000              add [eax],al
000093AA  0000              add [eax],al
000093AC  0000              add [eax],al
000093AE  0000              add [eax],al
000093B0  0000              add [eax],al
000093B2  0000              add [eax],al
000093B4  0000              add [eax],al
000093B6  0000              add [eax],al
000093B8  0000              add [eax],al
000093BA  0000              add [eax],al
000093BC  0000              add [eax],al
000093BE  0000              add [eax],al
000093C0  0000              add [eax],al
000093C2  0000              add [eax],al
000093C4  0000              add [eax],al
000093C6  0000              add [eax],al
000093C8  0000              add [eax],al
000093CA  0000              add [eax],al
000093CC  0000              add [eax],al
000093CE  0000              add [eax],al
000093D0  0000              add [eax],al
000093D2  0000              add [eax],al
000093D4  0000              add [eax],al
000093D6  0000              add [eax],al
000093D8  0000              add [eax],al
000093DA  0000              add [eax],al
000093DC  0000              add [eax],al
000093DE  0000              add [eax],al
000093E0  0000              add [eax],al
000093E2  0000              add [eax],al
000093E4  0000              add [eax],al
000093E6  0000              add [eax],al
000093E8  0000              add [eax],al
000093EA  0000              add [eax],al
000093EC  0000              add [eax],al
000093EE  0000              add [eax],al
000093F0  0000              add [eax],al
000093F2  0000              add [eax],al
000093F4  0000              add [eax],al
000093F6  0000              add [eax],al
000093F8  0000              add [eax],al
000093FA  0000              add [eax],al
000093FC  0000              add [eax],al
000093FE  0000              add [eax],al
00009400  0000              add [eax],al
00009402  0000              add [eax],al
00009404  0000              add [eax],al
00009406  0000              add [eax],al
00009408  0000              add [eax],al
0000940A  0000              add [eax],al
0000940C  0000              add [eax],al
0000940E  0000              add [eax],al
00009410  0000              add [eax],al
00009412  0000              add [eax],al
00009414  0000              add [eax],al
00009416  0000              add [eax],al
00009418  0000              add [eax],al
0000941A  0000              add [eax],al
0000941C  0000              add [eax],al
0000941E  0000              add [eax],al
00009420  0000              add [eax],al
00009422  0000              add [eax],al
00009424  0000              add [eax],al
00009426  0000              add [eax],al
00009428  0000              add [eax],al
0000942A  0000              add [eax],al
0000942C  0000              add [eax],al
0000942E  0000              add [eax],al
00009430  0000              add [eax],al
00009432  0000              add [eax],al
00009434  0000              add [eax],al
00009436  0000              add [eax],al
00009438  0000              add [eax],al
0000943A  0000              add [eax],al
0000943C  0000              add [eax],al
0000943E  0000              add [eax],al
00009440  0000              add [eax],al
00009442  0000              add [eax],al
00009444  0000              add [eax],al
00009446  0000              add [eax],al
00009448  0000              add [eax],al
0000944A  0000              add [eax],al
0000944C  0000              add [eax],al
0000944E  0000              add [eax],al
00009450  0000              add [eax],al
00009452  0000              add [eax],al
00009454  0000              add [eax],al
00009456  0000              add [eax],al
00009458  0000              add [eax],al
0000945A  0000              add [eax],al
0000945C  0000              add [eax],al
0000945E  0000              add [eax],al
00009460  0000              add [eax],al
00009462  0000              add [eax],al
00009464  0000              add [eax],al
00009466  0000              add [eax],al
00009468  0000              add [eax],al
0000946A  0000              add [eax],al
0000946C  0000              add [eax],al
0000946E  0000              add [eax],al
00009470  0000              add [eax],al
00009472  0000              add [eax],al
00009474  0000              add [eax],al
00009476  0000              add [eax],al
00009478  0000              add [eax],al
0000947A  0000              add [eax],al
0000947C  0000              add [eax],al
0000947E  0000              add [eax],al
00009480  0000              add [eax],al
00009482  0000              add [eax],al
00009484  0000              add [eax],al
00009486  0000              add [eax],al
00009488  0000              add [eax],al
0000948A  0000              add [eax],al
0000948C  0000              add [eax],al
0000948E  0000              add [eax],al
00009490  0000              add [eax],al
00009492  0000              add [eax],al
00009494  0000              add [eax],al
00009496  0000              add [eax],al
00009498  0000              add [eax],al
0000949A  0000              add [eax],al
0000949C  0000              add [eax],al
0000949E  0000              add [eax],al
000094A0  0000              add [eax],al
000094A2  0000              add [eax],al
000094A4  0000              add [eax],al
000094A6  0000              add [eax],al
000094A8  0000              add [eax],al
000094AA  0000              add [eax],al
000094AC  0000              add [eax],al
000094AE  0000              add [eax],al
000094B0  0000              add [eax],al
000094B2  0000              add [eax],al
000094B4  0000              add [eax],al
000094B6  0000              add [eax],al
000094B8  0000              add [eax],al
000094BA  0000              add [eax],al
000094BC  0000              add [eax],al
000094BE  0000              add [eax],al
000094C0  0000              add [eax],al
000094C2  0000              add [eax],al
000094C4  0000              add [eax],al
000094C6  0000              add [eax],al
000094C8  0000              add [eax],al
000094CA  0000              add [eax],al
000094CC  0000              add [eax],al
000094CE  0000              add [eax],al
000094D0  0000              add [eax],al
000094D2  0000              add [eax],al
000094D4  0000              add [eax],al
000094D6  0000              add [eax],al
000094D8  0000              add [eax],al
000094DA  0000              add [eax],al
000094DC  0000              add [eax],al
000094DE  0000              add [eax],al
000094E0  0000              add [eax],al
000094E2  0000              add [eax],al
000094E4  0000              add [eax],al
000094E6  0000              add [eax],al
000094E8  0000              add [eax],al
000094EA  0000              add [eax],al
000094EC  0000              add [eax],al
000094EE  0000              add [eax],al
000094F0  0000              add [eax],al
000094F2  0000              add [eax],al
000094F4  0000              add [eax],al
000094F6  0000              add [eax],al
000094F8  0000              add [eax],al
000094FA  0000              add [eax],al
000094FC  0000              add [eax],al
000094FE  0000              add [eax],al
00009500  0000              add [eax],al
00009502  0000              add [eax],al
00009504  0000              add [eax],al
00009506  0000              add [eax],al
00009508  0000              add [eax],al
0000950A  0000              add [eax],al
0000950C  0000              add [eax],al
0000950E  0000              add [eax],al
00009510  0000              add [eax],al
00009512  0000              add [eax],al
00009514  0000              add [eax],al
00009516  0000              add [eax],al
00009518  0000              add [eax],al
0000951A  0000              add [eax],al
0000951C  0000              add [eax],al
0000951E  0000              add [eax],al
00009520  0000              add [eax],al
00009522  0000              add [eax],al
00009524  0000              add [eax],al
00009526  0000              add [eax],al
00009528  0000              add [eax],al
0000952A  0000              add [eax],al
0000952C  0000              add [eax],al
0000952E  0000              add [eax],al
00009530  0000              add [eax],al
00009532  0000              add [eax],al
00009534  0000              add [eax],al
00009536  0000              add [eax],al
00009538  0000              add [eax],al
0000953A  0000              add [eax],al
0000953C  0000              add [eax],al
0000953E  0000              add [eax],al
00009540  0000              add [eax],al
00009542  0000              add [eax],al
00009544  0000              add [eax],al
00009546  0000              add [eax],al
00009548  0000              add [eax],al
0000954A  0000              add [eax],al
0000954C  0000              add [eax],al
0000954E  0000              add [eax],al
00009550  0000              add [eax],al
00009552  0000              add [eax],al
00009554  0000              add [eax],al
00009556  0000              add [eax],al
00009558  0000              add [eax],al
0000955A  0000              add [eax],al
0000955C  0000              add [eax],al
0000955E  0000              add [eax],al
00009560  0000              add [eax],al
00009562  0000              add [eax],al
00009564  0000              add [eax],al
00009566  0000              add [eax],al
00009568  0000              add [eax],al
0000956A  0000              add [eax],al
0000956C  0000              add [eax],al
0000956E  0000              add [eax],al
00009570  0000              add [eax],al
00009572  0000              add [eax],al
00009574  0000              add [eax],al
00009576  0000              add [eax],al
00009578  0000              add [eax],al
0000957A  0000              add [eax],al
0000957C  0000              add [eax],al
0000957E  0000              add [eax],al
00009580  0000              add [eax],al
00009582  0000              add [eax],al
00009584  0000              add [eax],al
00009586  0000              add [eax],al
00009588  0000              add [eax],al
0000958A  0000              add [eax],al
0000958C  0000              add [eax],al
0000958E  0000              add [eax],al
00009590  0000              add [eax],al
00009592  0000              add [eax],al
00009594  0000              add [eax],al
00009596  0000              add [eax],al
00009598  0000              add [eax],al
0000959A  0000              add [eax],al
0000959C  0000              add [eax],al
0000959E  0000              add [eax],al
000095A0  0000              add [eax],al
000095A2  0000              add [eax],al
000095A4  0000              add [eax],al
000095A6  0000              add [eax],al
000095A8  0000              add [eax],al
000095AA  0000              add [eax],al
000095AC  0000              add [eax],al
000095AE  0000              add [eax],al
000095B0  0000              add [eax],al
000095B2  0000              add [eax],al
000095B4  0000              add [eax],al
000095B6  0000              add [eax],al
000095B8  0000              add [eax],al
000095BA  0000              add [eax],al
000095BC  0000              add [eax],al
000095BE  0000              add [eax],al
000095C0  0000              add [eax],al
000095C2  0000              add [eax],al
000095C4  0000              add [eax],al
000095C6  0000              add [eax],al
000095C8  0000              add [eax],al
000095CA  0000              add [eax],al
000095CC  0000              add [eax],al
000095CE  0000              add [eax],al
000095D0  0000              add [eax],al
000095D2  0000              add [eax],al
000095D4  0000              add [eax],al
000095D6  0000              add [eax],al
000095D8  0000              add [eax],al
000095DA  0000              add [eax],al
000095DC  0000              add [eax],al
000095DE  0000              add [eax],al
000095E0  0000              add [eax],al
000095E2  0000              add [eax],al
000095E4  0000              add [eax],al
000095E6  0000              add [eax],al
000095E8  0000              add [eax],al
000095EA  0000              add [eax],al
000095EC  0000              add [eax],al
000095EE  0000              add [eax],al
000095F0  0000              add [eax],al
000095F2  0000              add [eax],al
000095F4  0000              add [eax],al
000095F6  0000              add [eax],al
000095F8  0000              add [eax],al
000095FA  0000              add [eax],al
000095FC  0000              add [eax],al
000095FE  0000              add [eax],al
00009600  0000              add [eax],al
00009602  0000              add [eax],al
00009604  0000              add [eax],al
00009606  0000              add [eax],al
00009608  0000              add [eax],al
0000960A  0000              add [eax],al
0000960C  0000              add [eax],al
0000960E  0000              add [eax],al
00009610  0000              add [eax],al
00009612  0000              add [eax],al
00009614  0000              add [eax],al
00009616  0000              add [eax],al
00009618  0000              add [eax],al
0000961A  0000              add [eax],al
0000961C  0000              add [eax],al
0000961E  0000              add [eax],al
00009620  0000              add [eax],al
00009622  0000              add [eax],al
00009624  0000              add [eax],al
00009626  0000              add [eax],al
00009628  0000              add [eax],al
0000962A  0000              add [eax],al
0000962C  0000              add [eax],al
0000962E  0000              add [eax],al
00009630  0000              add [eax],al
00009632  0000              add [eax],al
00009634  0000              add [eax],al
00009636  0000              add [eax],al
00009638  0000              add [eax],al
0000963A  0000              add [eax],al
0000963C  0000              add [eax],al
0000963E  0000              add [eax],al
00009640  0000              add [eax],al
00009642  0000              add [eax],al
00009644  0000              add [eax],al
00009646  0000              add [eax],al
00009648  0000              add [eax],al
0000964A  0000              add [eax],al
0000964C  0000              add [eax],al
0000964E  0000              add [eax],al
00009650  0000              add [eax],al
00009652  0000              add [eax],al
00009654  0000              add [eax],al
00009656  0000              add [eax],al
00009658  0000              add [eax],al
0000965A  0000              add [eax],al
0000965C  0000              add [eax],al
0000965E  0000              add [eax],al
00009660  0000              add [eax],al
00009662  0000              add [eax],al
00009664  0000              add [eax],al
00009666  0000              add [eax],al
00009668  0000              add [eax],al
0000966A  0000              add [eax],al
0000966C  0000              add [eax],al
0000966E  0000              add [eax],al
00009670  0000              add [eax],al
00009672  0000              add [eax],al
00009674  0000              add [eax],al
00009676  0000              add [eax],al
00009678  0000              add [eax],al
0000967A  0000              add [eax],al
0000967C  0000              add [eax],al
0000967E  0000              add [eax],al
00009680  0000              add [eax],al
00009682  0000              add [eax],al
00009684  0000              add [eax],al
00009686  0000              add [eax],al
00009688  0000              add [eax],al
0000968A  0000              add [eax],al
0000968C  0000              add [eax],al
0000968E  0000              add [eax],al
00009690  0000              add [eax],al
00009692  0000              add [eax],al
00009694  0000              add [eax],al
00009696  0000              add [eax],al
00009698  0000              add [eax],al
0000969A  0000              add [eax],al
0000969C  0000              add [eax],al
0000969E  0000              add [eax],al
000096A0  0000              add [eax],al
000096A2  0000              add [eax],al
000096A4  0000              add [eax],al
000096A6  0000              add [eax],al
000096A8  0000              add [eax],al
000096AA  0000              add [eax],al
000096AC  0000              add [eax],al
000096AE  0000              add [eax],al
000096B0  0000              add [eax],al
000096B2  0000              add [eax],al
000096B4  0000              add [eax],al
000096B6  0000              add [eax],al
000096B8  0000              add [eax],al
000096BA  0000              add [eax],al
000096BC  0000              add [eax],al
000096BE  0000              add [eax],al
000096C0  0000              add [eax],al
000096C2  0000              add [eax],al
000096C4  0000              add [eax],al
000096C6  0000              add [eax],al
000096C8  0000              add [eax],al
000096CA  0000              add [eax],al
000096CC  0000              add [eax],al
000096CE  0000              add [eax],al
000096D0  0000              add [eax],al
000096D2  0000              add [eax],al
000096D4  0000              add [eax],al
000096D6  0000              add [eax],al
000096D8  0000              add [eax],al
000096DA  0000              add [eax],al
000096DC  0000              add [eax],al
000096DE  0000              add [eax],al
000096E0  0000              add [eax],al
000096E2  0000              add [eax],al
000096E4  0000              add [eax],al
000096E6  0000              add [eax],al
000096E8  0000              add [eax],al
000096EA  0000              add [eax],al
000096EC  0000              add [eax],al
000096EE  0000              add [eax],al
000096F0  0000              add [eax],al
000096F2  0000              add [eax],al
000096F4  0000              add [eax],al
000096F6  0000              add [eax],al
000096F8  0000              add [eax],al
000096FA  0000              add [eax],al
000096FC  0000              add [eax],al
000096FE  0000              add [eax],al
00009700  0000              add [eax],al
00009702  0000              add [eax],al
00009704  0000              add [eax],al
00009706  0000              add [eax],al
00009708  0000              add [eax],al
0000970A  0000              add [eax],al
0000970C  0000              add [eax],al
0000970E  0000              add [eax],al
00009710  0000              add [eax],al
00009712  0000              add [eax],al
00009714  0000              add [eax],al
00009716  0000              add [eax],al
00009718  0000              add [eax],al
0000971A  0000              add [eax],al
0000971C  0000              add [eax],al
0000971E  0000              add [eax],al
00009720  0000              add [eax],al
00009722  0000              add [eax],al
00009724  0000              add [eax],al
00009726  0000              add [eax],al
00009728  0000              add [eax],al
0000972A  0000              add [eax],al
0000972C  0000              add [eax],al
0000972E  0000              add [eax],al
00009730  0000              add [eax],al
00009732  0000              add [eax],al
00009734  0000              add [eax],al
00009736  0000              add [eax],al
00009738  0000              add [eax],al
0000973A  0000              add [eax],al
0000973C  0000              add [eax],al
0000973E  0000              add [eax],al
00009740  0000              add [eax],al
00009742  0000              add [eax],al
00009744  0000              add [eax],al
00009746  0000              add [eax],al
00009748  0000              add [eax],al
0000974A  0000              add [eax],al
0000974C  0000              add [eax],al
0000974E  0000              add [eax],al
00009750  0000              add [eax],al
00009752  0000              add [eax],al
00009754  0000              add [eax],al
00009756  0000              add [eax],al
00009758  0000              add [eax],al
0000975A  0000              add [eax],al
0000975C  0000              add [eax],al
0000975E  0000              add [eax],al
00009760  0000              add [eax],al
00009762  0000              add [eax],al
00009764  0000              add [eax],al
00009766  0000              add [eax],al
00009768  0000              add [eax],al
0000976A  0000              add [eax],al
0000976C  0000              add [eax],al
0000976E  0000              add [eax],al
00009770  0000              add [eax],al
00009772  0000              add [eax],al
00009774  0000              add [eax],al
00009776  0000              add [eax],al
00009778  0000              add [eax],al
0000977A  0000              add [eax],al
0000977C  0000              add [eax],al
0000977E  0000              add [eax],al
00009780  0000              add [eax],al
00009782  0000              add [eax],al
00009784  0000              add [eax],al
00009786  0000              add [eax],al
00009788  0000              add [eax],al
0000978A  0000              add [eax],al
0000978C  0000              add [eax],al
0000978E  0000              add [eax],al
00009790  0000              add [eax],al
00009792  0000              add [eax],al
00009794  0000              add [eax],al
00009796  0000              add [eax],al
00009798  0000              add [eax],al
0000979A  0000              add [eax],al
0000979C  0000              add [eax],al
0000979E  0000              add [eax],al
000097A0  0000              add [eax],al
000097A2  0000              add [eax],al
000097A4  0000              add [eax],al
000097A6  0000              add [eax],al
000097A8  0000              add [eax],al
000097AA  0000              add [eax],al
000097AC  0000              add [eax],al
000097AE  0000              add [eax],al
000097B0  0000              add [eax],al
000097B2  0000              add [eax],al
000097B4  0000              add [eax],al
000097B6  0000              add [eax],al
000097B8  0000              add [eax],al
000097BA  0000              add [eax],al
000097BC  0000              add [eax],al
000097BE  0000              add [eax],al
000097C0  0000              add [eax],al
000097C2  0000              add [eax],al
000097C4  0000              add [eax],al
000097C6  0000              add [eax],al
000097C8  0000              add [eax],al
000097CA  0000              add [eax],al
000097CC  0000              add [eax],al
000097CE  0000              add [eax],al
000097D0  0000              add [eax],al
000097D2  0000              add [eax],al
000097D4  0000              add [eax],al
000097D6  0000              add [eax],al
000097D8  0000              add [eax],al
000097DA  0000              add [eax],al
000097DC  0000              add [eax],al
000097DE  0000              add [eax],al
000097E0  0000              add [eax],al
000097E2  0000              add [eax],al
000097E4  0000              add [eax],al
000097E6  0000              add [eax],al
000097E8  0000              add [eax],al
000097EA  0000              add [eax],al
000097EC  0000              add [eax],al
000097EE  0000              add [eax],al
000097F0  0000              add [eax],al
000097F2  0000              add [eax],al
000097F4  0000              add [eax],al
000097F6  0000              add [eax],al
000097F8  0000              add [eax],al
000097FA  0000              add [eax],al
000097FC  0000              add [eax],al
000097FE  0000              add [eax],al
00009800  0000              add [eax],al
00009802  0000              add [eax],al
00009804  0000              add [eax],al
00009806  0000              add [eax],al
00009808  0000              add [eax],al
0000980A  0000              add [eax],al
0000980C  0000              add [eax],al
0000980E  0000              add [eax],al
00009810  0000              add [eax],al
00009812  0000              add [eax],al
00009814  0000              add [eax],al
00009816  0000              add [eax],al
00009818  0000              add [eax],al
0000981A  0000              add [eax],al
0000981C  0000              add [eax],al
0000981E  0000              add [eax],al
00009820  0000              add [eax],al
00009822  0000              add [eax],al
00009824  0000              add [eax],al
00009826  0000              add [eax],al
00009828  0000              add [eax],al
0000982A  0000              add [eax],al
0000982C  0000              add [eax],al
0000982E  0000              add [eax],al
00009830  0000              add [eax],al
00009832  0000              add [eax],al
00009834  0000              add [eax],al
00009836  0000              add [eax],al
00009838  0000              add [eax],al
0000983A  0000              add [eax],al
0000983C  0000              add [eax],al
0000983E  0000              add [eax],al
00009840  0000              add [eax],al
00009842  0000              add [eax],al
00009844  0000              add [eax],al
00009846  0000              add [eax],al
00009848  0000              add [eax],al
0000984A  0000              add [eax],al
0000984C  0000              add [eax],al
0000984E  0000              add [eax],al
00009850  0000              add [eax],al
00009852  0000              add [eax],al
00009854  0000              add [eax],al
00009856  0000              add [eax],al
00009858  0000              add [eax],al
0000985A  0000              add [eax],al
0000985C  0000              add [eax],al
0000985E  0000              add [eax],al
00009860  0000              add [eax],al
00009862  0000              add [eax],al
00009864  0000              add [eax],al
00009866  0000              add [eax],al
00009868  0000              add [eax],al
0000986A  0000              add [eax],al
0000986C  0000              add [eax],al
0000986E  0000              add [eax],al
00009870  0000              add [eax],al
00009872  0000              add [eax],al
00009874  0000              add [eax],al
00009876  0000              add [eax],al
00009878  0000              add [eax],al
0000987A  0000              add [eax],al
0000987C  0000              add [eax],al
0000987E  0000              add [eax],al
00009880  0000              add [eax],al
00009882  0000              add [eax],al
00009884  0000              add [eax],al
00009886  0000              add [eax],al
00009888  0000              add [eax],al
0000988A  0000              add [eax],al
0000988C  0000              add [eax],al
0000988E  0000              add [eax],al
00009890  0000              add [eax],al
00009892  0000              add [eax],al
00009894  0000              add [eax],al
00009896  0000              add [eax],al
00009898  0000              add [eax],al
0000989A  0000              add [eax],al
0000989C  0000              add [eax],al
0000989E  0000              add [eax],al
000098A0  0000              add [eax],al
000098A2  0000              add [eax],al
000098A4  0000              add [eax],al
000098A6  0000              add [eax],al
000098A8  0000              add [eax],al
000098AA  0000              add [eax],al
000098AC  0000              add [eax],al
000098AE  0000              add [eax],al
000098B0  0000              add [eax],al
000098B2  0000              add [eax],al
000098B4  0000              add [eax],al
000098B6  0000              add [eax],al
000098B8  0000              add [eax],al
000098BA  0000              add [eax],al
000098BC  0000              add [eax],al
000098BE  0000              add [eax],al
000098C0  0000              add [eax],al
000098C2  0000              add [eax],al
000098C4  0000              add [eax],al
000098C6  0000              add [eax],al
000098C8  0000              add [eax],al
000098CA  0000              add [eax],al
000098CC  0000              add [eax],al
000098CE  0000              add [eax],al
000098D0  0000              add [eax],al
000098D2  0000              add [eax],al
000098D4  0000              add [eax],al
000098D6  0000              add [eax],al
000098D8  0000              add [eax],al
000098DA  0000              add [eax],al
000098DC  0000              add [eax],al
000098DE  0000              add [eax],al
000098E0  0000              add [eax],al
000098E2  0000              add [eax],al
000098E4  0000              add [eax],al
000098E6  0000              add [eax],al
000098E8  0000              add [eax],al
000098EA  0000              add [eax],al
000098EC  0000              add [eax],al
000098EE  0000              add [eax],al
000098F0  0000              add [eax],al
000098F2  0000              add [eax],al
000098F4  0000              add [eax],al
000098F6  0000              add [eax],al
000098F8  0000              add [eax],al
000098FA  0000              add [eax],al
000098FC  0000              add [eax],al
000098FE  0000              add [eax],al
00009900  0000              add [eax],al
00009902  0000              add [eax],al
00009904  0000              add [eax],al
00009906  0000              add [eax],al
00009908  0000              add [eax],al
0000990A  0000              add [eax],al
0000990C  0000              add [eax],al
0000990E  0000              add [eax],al
00009910  0000              add [eax],al
00009912  0000              add [eax],al
00009914  0000              add [eax],al
00009916  0000              add [eax],al
00009918  0000              add [eax],al
0000991A  0000              add [eax],al
0000991C  0000              add [eax],al
0000991E  0000              add [eax],al
00009920  0000              add [eax],al
00009922  0000              add [eax],al
00009924  0000              add [eax],al
00009926  0000              add [eax],al
00009928  0000              add [eax],al
0000992A  0000              add [eax],al
0000992C  0000              add [eax],al
0000992E  0000              add [eax],al
00009930  0000              add [eax],al
00009932  0000              add [eax],al
00009934  0000              add [eax],al
00009936  0000              add [eax],al
00009938  0000              add [eax],al
0000993A  0000              add [eax],al
0000993C  0000              add [eax],al
0000993E  0000              add [eax],al
00009940  0000              add [eax],al
00009942  0000              add [eax],al
00009944  0000              add [eax],al
00009946  0000              add [eax],al
00009948  0000              add [eax],al
0000994A  0000              add [eax],al
0000994C  0000              add [eax],al
0000994E  0000              add [eax],al
00009950  0000              add [eax],al
00009952  0000              add [eax],al
00009954  0000              add [eax],al
00009956  0000              add [eax],al
00009958  0000              add [eax],al
0000995A  0000              add [eax],al
0000995C  0000              add [eax],al
0000995E  0000              add [eax],al
00009960  0000              add [eax],al
00009962  0000              add [eax],al
00009964  0000              add [eax],al
00009966  0000              add [eax],al
00009968  0000              add [eax],al
0000996A  0000              add [eax],al
0000996C  0000              add [eax],al
0000996E  0000              add [eax],al
00009970  0000              add [eax],al
00009972  0000              add [eax],al
00009974  0000              add [eax],al
00009976  0000              add [eax],al
00009978  0000              add [eax],al
0000997A  0000              add [eax],al
0000997C  0000              add [eax],al
0000997E  0000              add [eax],al
00009980  0000              add [eax],al
00009982  0000              add [eax],al
00009984  0000              add [eax],al
00009986  0000              add [eax],al
00009988  0000              add [eax],al
0000998A  0000              add [eax],al
0000998C  0000              add [eax],al
0000998E  0000              add [eax],al
00009990  0000              add [eax],al
00009992  0000              add [eax],al
00009994  0000              add [eax],al
00009996  0000              add [eax],al
00009998  0000              add [eax],al
0000999A  0000              add [eax],al
0000999C  0000              add [eax],al
0000999E  0000              add [eax],al
000099A0  0000              add [eax],al
000099A2  0000              add [eax],al
000099A4  0000              add [eax],al
000099A6  0000              add [eax],al
000099A8  0000              add [eax],al
000099AA  0000              add [eax],al
000099AC  0000              add [eax],al
000099AE  0000              add [eax],al
000099B0  0000              add [eax],al
000099B2  0000              add [eax],al
000099B4  0000              add [eax],al
000099B6  0000              add [eax],al
000099B8  0000              add [eax],al
000099BA  0000              add [eax],al
000099BC  0000              add [eax],al
000099BE  0000              add [eax],al
000099C0  0000              add [eax],al
000099C2  0000              add [eax],al
000099C4  0000              add [eax],al
000099C6  0000              add [eax],al
000099C8  0000              add [eax],al
000099CA  0000              add [eax],al
000099CC  0000              add [eax],al
000099CE  0000              add [eax],al
000099D0  0000              add [eax],al
000099D2  0000              add [eax],al
000099D4  0000              add [eax],al
000099D6  0000              add [eax],al
000099D8  0000              add [eax],al
000099DA  0000              add [eax],al
000099DC  0000              add [eax],al
000099DE  0000              add [eax],al
000099E0  0000              add [eax],al
000099E2  0000              add [eax],al
000099E4  0000              add [eax],al
000099E6  0000              add [eax],al
000099E8  0000              add [eax],al
000099EA  0000              add [eax],al
000099EC  0000              add [eax],al
000099EE  0000              add [eax],al
000099F0  0000              add [eax],al
000099F2  0000              add [eax],al
000099F4  0000              add [eax],al
000099F6  0000              add [eax],al
000099F8  0000              add [eax],al
000099FA  0000              add [eax],al
000099FC  0000              add [eax],al
000099FE  0000              add [eax],al
00009A00  0000              add [eax],al
00009A02  0000              add [eax],al
00009A04  0000              add [eax],al
00009A06  0000              add [eax],al
00009A08  0000              add [eax],al
00009A0A  0000              add [eax],al
00009A0C  0000              add [eax],al
00009A0E  0000              add [eax],al
00009A10  0000              add [eax],al
00009A12  0000              add [eax],al
00009A14  0000              add [eax],al
00009A16  0000              add [eax],al
00009A18  0000              add [eax],al
00009A1A  0000              add [eax],al
00009A1C  0000              add [eax],al
00009A1E  0000              add [eax],al
00009A20  0000              add [eax],al
00009A22  0000              add [eax],al
00009A24  0000              add [eax],al
00009A26  0000              add [eax],al
00009A28  0000              add [eax],al
00009A2A  0000              add [eax],al
00009A2C  0000              add [eax],al
00009A2E  0000              add [eax],al
00009A30  0000              add [eax],al
00009A32  0000              add [eax],al
00009A34  0000              add [eax],al
00009A36  0000              add [eax],al
00009A38  0000              add [eax],al
00009A3A  0000              add [eax],al
00009A3C  0000              add [eax],al
00009A3E  0000              add [eax],al
00009A40  0000              add [eax],al
00009A42  0000              add [eax],al
00009A44  0000              add [eax],al
00009A46  0000              add [eax],al
00009A48  0000              add [eax],al
00009A4A  0000              add [eax],al
00009A4C  0000              add [eax],al
00009A4E  0000              add [eax],al
00009A50  0000              add [eax],al
00009A52  0000              add [eax],al
00009A54  0000              add [eax],al
00009A56  0000              add [eax],al
00009A58  0000              add [eax],al
00009A5A  0000              add [eax],al
00009A5C  0000              add [eax],al
00009A5E  0000              add [eax],al
00009A60  0000              add [eax],al
00009A62  0000              add [eax],al
00009A64  0000              add [eax],al
00009A66  0000              add [eax],al
00009A68  0000              add [eax],al
00009A6A  0000              add [eax],al
00009A6C  0000              add [eax],al
00009A6E  0000              add [eax],al
00009A70  0000              add [eax],al
00009A72  0000              add [eax],al
00009A74  0000              add [eax],al
00009A76  0000              add [eax],al
00009A78  0000              add [eax],al
00009A7A  0000              add [eax],al
00009A7C  0000              add [eax],al
00009A7E  0000              add [eax],al
00009A80  0000              add [eax],al
00009A82  0000              add [eax],al
00009A84  0000              add [eax],al
00009A86  0000              add [eax],al
00009A88  0000              add [eax],al
00009A8A  0000              add [eax],al
00009A8C  0000              add [eax],al
00009A8E  0000              add [eax],al
00009A90  0000              add [eax],al
00009A92  0000              add [eax],al
00009A94  0000              add [eax],al
00009A96  0000              add [eax],al
00009A98  0000              add [eax],al
00009A9A  0000              add [eax],al
00009A9C  0000              add [eax],al
00009A9E  0000              add [eax],al
00009AA0  0000              add [eax],al
00009AA2  0000              add [eax],al
00009AA4  0000              add [eax],al
00009AA6  0000              add [eax],al
00009AA8  0000              add [eax],al
00009AAA  0000              add [eax],al
00009AAC  0000              add [eax],al
00009AAE  0000              add [eax],al
00009AB0  0000              add [eax],al
00009AB2  0000              add [eax],al
00009AB4  0000              add [eax],al
00009AB6  0000              add [eax],al
00009AB8  0000              add [eax],al
00009ABA  0000              add [eax],al
00009ABC  0000              add [eax],al
00009ABE  0000              add [eax],al
00009AC0  0000              add [eax],al
00009AC2  0000              add [eax],al
00009AC4  0000              add [eax],al
00009AC6  0000              add [eax],al
00009AC8  0000              add [eax],al
00009ACA  0000              add [eax],al
00009ACC  0000              add [eax],al
00009ACE  0000              add [eax],al
00009AD0  0000              add [eax],al
00009AD2  0000              add [eax],al
00009AD4  0000              add [eax],al
00009AD6  0000              add [eax],al
00009AD8  0000              add [eax],al
00009ADA  0000              add [eax],al
00009ADC  0000              add [eax],al
00009ADE  0000              add [eax],al
00009AE0  0000              add [eax],al
00009AE2  0000              add [eax],al
00009AE4  0000              add [eax],al
00009AE6  0000              add [eax],al
00009AE8  0000              add [eax],al
00009AEA  0000              add [eax],al
00009AEC  0000              add [eax],al
00009AEE  0000              add [eax],al
00009AF0  0000              add [eax],al
00009AF2  0000              add [eax],al
00009AF4  0000              add [eax],al
00009AF6  0000              add [eax],al
00009AF8  0000              add [eax],al
00009AFA  0000              add [eax],al
00009AFC  0000              add [eax],al
00009AFE  0000              add [eax],al
00009B00  0000              add [eax],al
00009B02  0000              add [eax],al
00009B04  0000              add [eax],al
00009B06  0000              add [eax],al
00009B08  0000              add [eax],al
00009B0A  0000              add [eax],al
00009B0C  0000              add [eax],al
00009B0E  0000              add [eax],al
00009B10  0000              add [eax],al
00009B12  0000              add [eax],al
00009B14  0000              add [eax],al
00009B16  0000              add [eax],al
00009B18  0000              add [eax],al
00009B1A  0000              add [eax],al
00009B1C  0000              add [eax],al
00009B1E  0000              add [eax],al
00009B20  0000              add [eax],al
00009B22  0000              add [eax],al
00009B24  0000              add [eax],al
00009B26  0000              add [eax],al
00009B28  0000              add [eax],al
00009B2A  0000              add [eax],al
00009B2C  0000              add [eax],al
00009B2E  0000              add [eax],al
00009B30  0000              add [eax],al
00009B32  0000              add [eax],al
00009B34  0000              add [eax],al
00009B36  0000              add [eax],al
00009B38  0000              add [eax],al
00009B3A  0000              add [eax],al
00009B3C  0000              add [eax],al
00009B3E  0000              add [eax],al
00009B40  0000              add [eax],al
00009B42  0000              add [eax],al
00009B44  0000              add [eax],al
00009B46  0000              add [eax],al
00009B48  0000              add [eax],al
00009B4A  0000              add [eax],al
00009B4C  0000              add [eax],al
00009B4E  0000              add [eax],al
00009B50  0000              add [eax],al
00009B52  0000              add [eax],al
00009B54  0000              add [eax],al
00009B56  0000              add [eax],al
00009B58  0000              add [eax],al
00009B5A  0000              add [eax],al
00009B5C  0000              add [eax],al
00009B5E  0000              add [eax],al
00009B60  0000              add [eax],al
00009B62  0000              add [eax],al
00009B64  0000              add [eax],al
00009B66  0000              add [eax],al
00009B68  0000              add [eax],al
00009B6A  0000              add [eax],al
00009B6C  0000              add [eax],al
00009B6E  0000              add [eax],al
00009B70  0000              add [eax],al
00009B72  0000              add [eax],al
00009B74  0000              add [eax],al
00009B76  0000              add [eax],al
00009B78  0000              add [eax],al
00009B7A  0000              add [eax],al
00009B7C  0000              add [eax],al
00009B7E  0000              add [eax],al
00009B80  0000              add [eax],al
00009B82  0000              add [eax],al
00009B84  0000              add [eax],al
00009B86  0000              add [eax],al
00009B88  0000              add [eax],al
00009B8A  0000              add [eax],al
00009B8C  0000              add [eax],al
00009B8E  0000              add [eax],al
00009B90  0000              add [eax],al
00009B92  0000              add [eax],al
00009B94  0000              add [eax],al
00009B96  0000              add [eax],al
00009B98  0000              add [eax],al
00009B9A  0000              add [eax],al
00009B9C  0000              add [eax],al
00009B9E  0000              add [eax],al
00009BA0  0000              add [eax],al
00009BA2  0000              add [eax],al
00009BA4  0000              add [eax],al
00009BA6  0000              add [eax],al
00009BA8  0000              add [eax],al
00009BAA  0000              add [eax],al
00009BAC  0000              add [eax],al
00009BAE  0000              add [eax],al
00009BB0  0000              add [eax],al
00009BB2  0000              add [eax],al
00009BB4  0000              add [eax],al
00009BB6  0000              add [eax],al
00009BB8  0000              add [eax],al
00009BBA  0000              add [eax],al
00009BBC  0000              add [eax],al
00009BBE  0000              add [eax],al
00009BC0  0000              add [eax],al
00009BC2  0000              add [eax],al
00009BC4  0000              add [eax],al
00009BC6  0000              add [eax],al
00009BC8  0000              add [eax],al
00009BCA  0000              add [eax],al
00009BCC  0000              add [eax],al
00009BCE  0000              add [eax],al
00009BD0  0000              add [eax],al
00009BD2  0000              add [eax],al
00009BD4  0000              add [eax],al
00009BD6  0000              add [eax],al
00009BD8  0000              add [eax],al
00009BDA  0000              add [eax],al
00009BDC  0000              add [eax],al
00009BDE  0000              add [eax],al
00009BE0  0000              add [eax],al
00009BE2  0000              add [eax],al
00009BE4  0000              add [eax],al
00009BE6  0000              add [eax],al
00009BE8  0000              add [eax],al
00009BEA  0000              add [eax],al
00009BEC  0000              add [eax],al
00009BEE  0000              add [eax],al
00009BF0  0000              add [eax],al
00009BF2  0000              add [eax],al
00009BF4  0000              add [eax],al
00009BF6  0000              add [eax],al
00009BF8  0000              add [eax],al
00009BFA  0000              add [eax],al
00009BFC  0000              add [eax],al
00009BFE  0000              add [eax],al
00009C00  0000              add [eax],al
00009C02  0000              add [eax],al
00009C04  0000              add [eax],al
00009C06  0000              add [eax],al
00009C08  0000              add [eax],al
00009C0A  0000              add [eax],al
00009C0C  0000              add [eax],al
00009C0E  0000              add [eax],al
00009C10  0000              add [eax],al
00009C12  0000              add [eax],al
00009C14  0000              add [eax],al
00009C16  0000              add [eax],al
00009C18  0000              add [eax],al
00009C1A  0000              add [eax],al
00009C1C  0000              add [eax],al
00009C1E  0000              add [eax],al
00009C20  0000              add [eax],al
00009C22  0000              add [eax],al
00009C24  0000              add [eax],al
00009C26  0000              add [eax],al
00009C28  0000              add [eax],al
00009C2A  0000              add [eax],al
00009C2C  0000              add [eax],al
00009C2E  0000              add [eax],al
00009C30  0000              add [eax],al
00009C32  0000              add [eax],al
00009C34  0000              add [eax],al
00009C36  0000              add [eax],al
00009C38  0000              add [eax],al
00009C3A  0000              add [eax],al
00009C3C  0000              add [eax],al
00009C3E  0000              add [eax],al
00009C40  0000              add [eax],al
00009C42  0000              add [eax],al
00009C44  0000              add [eax],al
00009C46  0000              add [eax],al
00009C48  0000              add [eax],al
00009C4A  0000              add [eax],al
00009C4C  0000              add [eax],al
00009C4E  0000              add [eax],al
00009C50  0000              add [eax],al
00009C52  0000              add [eax],al
00009C54  0000              add [eax],al
00009C56  0000              add [eax],al
00009C58  0000              add [eax],al
00009C5A  0000              add [eax],al
00009C5C  0000              add [eax],al
00009C5E  0000              add [eax],al
00009C60  0000              add [eax],al
00009C62  0000              add [eax],al
00009C64  0000              add [eax],al
00009C66  0000              add [eax],al
00009C68  0000              add [eax],al
00009C6A  0000              add [eax],al
00009C6C  0000              add [eax],al
00009C6E  0000              add [eax],al
00009C70  0000              add [eax],al
00009C72  0000              add [eax],al
00009C74  0000              add [eax],al
00009C76  0000              add [eax],al
00009C78  0000              add [eax],al
00009C7A  0000              add [eax],al
00009C7C  0000              add [eax],al
00009C7E  0000              add [eax],al
00009C80  0000              add [eax],al
00009C82  0000              add [eax],al
00009C84  0000              add [eax],al
00009C86  0000              add [eax],al
00009C88  0000              add [eax],al
00009C8A  0000              add [eax],al
00009C8C  0000              add [eax],al
00009C8E  0000              add [eax],al
00009C90  0000              add [eax],al
00009C92  0000              add [eax],al
00009C94  0000              add [eax],al
00009C96  0000              add [eax],al
00009C98  0000              add [eax],al
00009C9A  0000              add [eax],al
00009C9C  0000              add [eax],al
00009C9E  0000              add [eax],al
00009CA0  0000              add [eax],al
00009CA2  0000              add [eax],al
00009CA4  0000              add [eax],al
00009CA6  0000              add [eax],al
00009CA8  0000              add [eax],al
00009CAA  0000              add [eax],al
00009CAC  0000              add [eax],al
00009CAE  0000              add [eax],al
00009CB0  0000              add [eax],al
00009CB2  0000              add [eax],al
00009CB4  0000              add [eax],al
00009CB6  0000              add [eax],al
00009CB8  0000              add [eax],al
00009CBA  0000              add [eax],al
00009CBC  0000              add [eax],al
00009CBE  0000              add [eax],al
00009CC0  0000              add [eax],al
00009CC2  0000              add [eax],al
00009CC4  0000              add [eax],al
00009CC6  0000              add [eax],al
00009CC8  0000              add [eax],al
00009CCA  0000              add [eax],al
00009CCC  0000              add [eax],al
00009CCE  0000              add [eax],al
00009CD0  0000              add [eax],al
00009CD2  0000              add [eax],al
00009CD4  0000              add [eax],al
00009CD6  0000              add [eax],al
00009CD8  0000              add [eax],al
00009CDA  0000              add [eax],al
00009CDC  0000              add [eax],al
00009CDE  0000              add [eax],al
00009CE0  0000              add [eax],al
00009CE2  0000              add [eax],al
00009CE4  0000              add [eax],al
00009CE6  0000              add [eax],al
00009CE8  0000              add [eax],al
00009CEA  0000              add [eax],al
00009CEC  0000              add [eax],al
00009CEE  0000              add [eax],al
00009CF0  0000              add [eax],al
00009CF2  0000              add [eax],al
00009CF4  0000              add [eax],al
00009CF6  0000              add [eax],al
00009CF8  0000              add [eax],al
00009CFA  0000              add [eax],al
00009CFC  0000              add [eax],al
00009CFE  0000              add [eax],al
00009D00  0000              add [eax],al
00009D02  0000              add [eax],al
00009D04  0000              add [eax],al
00009D06  0000              add [eax],al
00009D08  0000              add [eax],al
00009D0A  0000              add [eax],al
00009D0C  0000              add [eax],al
00009D0E  0000              add [eax],al
00009D10  0000              add [eax],al
00009D12  0000              add [eax],al
00009D14  0000              add [eax],al
00009D16  0000              add [eax],al
00009D18  0000              add [eax],al
00009D1A  0000              add [eax],al
00009D1C  0000              add [eax],al
00009D1E  0000              add [eax],al
00009D20  0000              add [eax],al
00009D22  0000              add [eax],al
00009D24  0000              add [eax],al
00009D26  0000              add [eax],al
00009D28  0000              add [eax],al
00009D2A  0000              add [eax],al
00009D2C  0000              add [eax],al
00009D2E  0000              add [eax],al
00009D30  0000              add [eax],al
00009D32  0000              add [eax],al
00009D34  0000              add [eax],al
00009D36  0000              add [eax],al
00009D38  0000              add [eax],al
00009D3A  0000              add [eax],al
00009D3C  0000              add [eax],al
00009D3E  0000              add [eax],al
00009D40  0000              add [eax],al
00009D42  0000              add [eax],al
00009D44  0000              add [eax],al
00009D46  0000              add [eax],al
00009D48  0000              add [eax],al
00009D4A  0000              add [eax],al
00009D4C  0000              add [eax],al
00009D4E  0000              add [eax],al
00009D50  0000              add [eax],al
00009D52  0000              add [eax],al
00009D54  0000              add [eax],al
00009D56  0000              add [eax],al
00009D58  0000              add [eax],al
00009D5A  0000              add [eax],al
00009D5C  0000              add [eax],al
00009D5E  0000              add [eax],al
00009D60  0000              add [eax],al
00009D62  0000              add [eax],al
00009D64  0000              add [eax],al
00009D66  0000              add [eax],al
00009D68  0000              add [eax],al
00009D6A  0000              add [eax],al
00009D6C  0000              add [eax],al
00009D6E  0000              add [eax],al
00009D70  0000              add [eax],al
00009D72  0000              add [eax],al
00009D74  0000              add [eax],al
00009D76  0000              add [eax],al
00009D78  0000              add [eax],al
00009D7A  0000              add [eax],al
00009D7C  0000              add [eax],al
00009D7E  0000              add [eax],al
00009D80  0000              add [eax],al
00009D82  0000              add [eax],al
00009D84  0000              add [eax],al
00009D86  0000              add [eax],al
00009D88  0000              add [eax],al
00009D8A  0000              add [eax],al
00009D8C  0000              add [eax],al
00009D8E  0000              add [eax],al
00009D90  0000              add [eax],al
00009D92  0000              add [eax],al
00009D94  0000              add [eax],al
00009D96  0000              add [eax],al
00009D98  0000              add [eax],al
00009D9A  0000              add [eax],al
00009D9C  0000              add [eax],al
00009D9E  0000              add [eax],al
00009DA0  0000              add [eax],al
00009DA2  0000              add [eax],al
00009DA4  0000              add [eax],al
00009DA6  0000              add [eax],al
00009DA8  0000              add [eax],al
00009DAA  0000              add [eax],al
00009DAC  0000              add [eax],al
00009DAE  0000              add [eax],al
00009DB0  0000              add [eax],al
00009DB2  0000              add [eax],al
00009DB4  0000              add [eax],al
00009DB6  0000              add [eax],al
00009DB8  0000              add [eax],al
00009DBA  0000              add [eax],al
00009DBC  0000              add [eax],al
00009DBE  0000              add [eax],al
00009DC0  0000              add [eax],al
00009DC2  0000              add [eax],al
00009DC4  0000              add [eax],al
00009DC6  0000              add [eax],al
00009DC8  0000              add [eax],al
00009DCA  0000              add [eax],al
00009DCC  0000              add [eax],al
00009DCE  0000              add [eax],al
00009DD0  0000              add [eax],al
00009DD2  0000              add [eax],al
00009DD4  0000              add [eax],al
00009DD6  0000              add [eax],al
00009DD8  0000              add [eax],al
00009DDA  0000              add [eax],al
00009DDC  0000              add [eax],al
00009DDE  0000              add [eax],al
00009DE0  0000              add [eax],al
00009DE2  0000              add [eax],al
00009DE4  0000              add [eax],al
00009DE6  0000              add [eax],al
00009DE8  0000              add [eax],al
00009DEA  0000              add [eax],al
00009DEC  0000              add [eax],al
00009DEE  0000              add [eax],al
00009DF0  0000              add [eax],al
00009DF2  0000              add [eax],al
00009DF4  0000              add [eax],al
00009DF6  0000              add [eax],al
00009DF8  0000              add [eax],al
00009DFA  0000              add [eax],al
00009DFC  0000              add [eax],al
00009DFE  0000              add [eax],al
00009E00  0000              add [eax],al
00009E02  0000              add [eax],al
00009E04  0000              add [eax],al
00009E06  0000              add [eax],al
00009E08  0000              add [eax],al
00009E0A  0000              add [eax],al
00009E0C  0000              add [eax],al
00009E0E  0000              add [eax],al
00009E10  0000              add [eax],al
00009E12  0000              add [eax],al
00009E14  0000              add [eax],al
00009E16  0000              add [eax],al
00009E18  0000              add [eax],al
00009E1A  0000              add [eax],al
00009E1C  0000              add [eax],al
00009E1E  0000              add [eax],al
00009E20  0000              add [eax],al
00009E22  0000              add [eax],al
00009E24  0000              add [eax],al
00009E26  0000              add [eax],al
00009E28  0000              add [eax],al
00009E2A  0000              add [eax],al
00009E2C  0000              add [eax],al
00009E2E  0000              add [eax],al
00009E30  0000              add [eax],al
00009E32  0000              add [eax],al
00009E34  0000              add [eax],al
00009E36  0000              add [eax],al
00009E38  0000              add [eax],al
00009E3A  0000              add [eax],al
00009E3C  0000              add [eax],al
00009E3E  0000              add [eax],al
00009E40  0000              add [eax],al
00009E42  0000              add [eax],al
00009E44  0000              add [eax],al
00009E46  0000              add [eax],al
00009E48  0000              add [eax],al
00009E4A  0000              add [eax],al
00009E4C  0000              add [eax],al
00009E4E  0000              add [eax],al
00009E50  0000              add [eax],al
00009E52  0000              add [eax],al
00009E54  0000              add [eax],al
00009E56  0000              add [eax],al
00009E58  0000              add [eax],al
00009E5A  0000              add [eax],al
00009E5C  0000              add [eax],al
00009E5E  0000              add [eax],al
00009E60  0000              add [eax],al
00009E62  0000              add [eax],al
00009E64  0000              add [eax],al
00009E66  0000              add [eax],al
00009E68  0000              add [eax],al
00009E6A  0000              add [eax],al
00009E6C  0000              add [eax],al
00009E6E  0000              add [eax],al
00009E70  0000              add [eax],al
00009E72  0000              add [eax],al
00009E74  0000              add [eax],al
00009E76  0000              add [eax],al
00009E78  0000              add [eax],al
00009E7A  0000              add [eax],al
00009E7C  0000              add [eax],al
00009E7E  0000              add [eax],al
00009E80  0000              add [eax],al
00009E82  0000              add [eax],al
00009E84  0000              add [eax],al
00009E86  0000              add [eax],al
00009E88  0000              add [eax],al
00009E8A  0000              add [eax],al
00009E8C  0000              add [eax],al
00009E8E  0000              add [eax],al
00009E90  0000              add [eax],al
00009E92  0000              add [eax],al
00009E94  0000              add [eax],al
00009E96  0000              add [eax],al
00009E98  0000              add [eax],al
00009E9A  0000              add [eax],al
00009E9C  0000              add [eax],al
00009E9E  0000              add [eax],al
00009EA0  0000              add [eax],al
00009EA2  0000              add [eax],al
00009EA4  0000              add [eax],al
00009EA6  0000              add [eax],al
00009EA8  0000              add [eax],al
00009EAA  0000              add [eax],al
00009EAC  0000              add [eax],al
00009EAE  0000              add [eax],al
00009EB0  0000              add [eax],al
00009EB2  0000              add [eax],al
00009EB4  0000              add [eax],al
00009EB6  0000              add [eax],al
00009EB8  0000              add [eax],al
00009EBA  0000              add [eax],al
00009EBC  0000              add [eax],al
00009EBE  0000              add [eax],al
00009EC0  0000              add [eax],al
00009EC2  0000              add [eax],al
00009EC4  0000              add [eax],al
00009EC6  0000              add [eax],al
00009EC8  0000              add [eax],al
00009ECA  0000              add [eax],al
00009ECC  0000              add [eax],al
00009ECE  0000              add [eax],al
00009ED0  0000              add [eax],al
00009ED2  0000              add [eax],al
00009ED4  0000              add [eax],al
00009ED6  0000              add [eax],al
00009ED8  0000              add [eax],al
00009EDA  0000              add [eax],al
00009EDC  0000              add [eax],al
00009EDE  0000              add [eax],al
00009EE0  0000              add [eax],al
00009EE2  0000              add [eax],al
00009EE4  0000              add [eax],al
00009EE6  0000              add [eax],al
00009EE8  0000              add [eax],al
00009EEA  0000              add [eax],al
00009EEC  0000              add [eax],al
00009EEE  0000              add [eax],al
00009EF0  0000              add [eax],al
00009EF2  0000              add [eax],al
00009EF4  0000              add [eax],al
00009EF6  0000              add [eax],al
00009EF8  0000              add [eax],al
00009EFA  0000              add [eax],al
00009EFC  0000              add [eax],al
00009EFE  0000              add [eax],al
00009F00  0000              add [eax],al
00009F02  0000              add [eax],al
00009F04  0000              add [eax],al
00009F06  0000              add [eax],al
00009F08  0000              add [eax],al
00009F0A  0000              add [eax],al
00009F0C  0000              add [eax],al
00009F0E  0000              add [eax],al
00009F10  0000              add [eax],al
00009F12  0000              add [eax],al
00009F14  0000              add [eax],al
00009F16  0000              add [eax],al
00009F18  0000              add [eax],al
00009F1A  0000              add [eax],al
00009F1C  0000              add [eax],al
00009F1E  0000              add [eax],al
00009F20  0000              add [eax],al
00009F22  0000              add [eax],al
00009F24  0000              add [eax],al
00009F26  0000              add [eax],al
00009F28  0000              add [eax],al
00009F2A  0000              add [eax],al
00009F2C  0000              add [eax],al
00009F2E  0000              add [eax],al
00009F30  0000              add [eax],al
00009F32  0000              add [eax],al
00009F34  0000              add [eax],al
00009F36  0000              add [eax],al
00009F38  0000              add [eax],al
00009F3A  0000              add [eax],al
00009F3C  0000              add [eax],al
00009F3E  0000              add [eax],al
00009F40  0000              add [eax],al
00009F42  0000              add [eax],al
00009F44  0000              add [eax],al
00009F46  0000              add [eax],al
00009F48  0000              add [eax],al
00009F4A  0000              add [eax],al
00009F4C  0000              add [eax],al
00009F4E  0000              add [eax],al
00009F50  0000              add [eax],al
00009F52  0000              add [eax],al
00009F54  0000              add [eax],al
00009F56  0000              add [eax],al
00009F58  0000              add [eax],al
00009F5A  0000              add [eax],al
00009F5C  0000              add [eax],al
00009F5E  0000              add [eax],al
00009F60  0000              add [eax],al
00009F62  0000              add [eax],al
00009F64  0000              add [eax],al
00009F66  0000              add [eax],al
00009F68  0000              add [eax],al
00009F6A  0000              add [eax],al
00009F6C  0000              add [eax],al
00009F6E  0000              add [eax],al
00009F70  0000              add [eax],al
00009F72  0000              add [eax],al
00009F74  0000              add [eax],al
00009F76  0000              add [eax],al
00009F78  0000              add [eax],al
00009F7A  0000              add [eax],al
00009F7C  0000              add [eax],al
00009F7E  0000              add [eax],al
00009F80  0000              add [eax],al
00009F82  0000              add [eax],al
00009F84  0000              add [eax],al
00009F86  0000              add [eax],al
00009F88  0000              add [eax],al
00009F8A  0000              add [eax],al
00009F8C  0000              add [eax],al
00009F8E  0000              add [eax],al
00009F90  0000              add [eax],al
00009F92  0000              add [eax],al
00009F94  0000              add [eax],al
00009F96  0000              add [eax],al
00009F98  0000              add [eax],al
00009F9A  0000              add [eax],al
00009F9C  0000              add [eax],al
00009F9E  0000              add [eax],al
00009FA0  0000              add [eax],al
00009FA2  0000              add [eax],al
00009FA4  0000              add [eax],al
00009FA6  0000              add [eax],al
00009FA8  0000              add [eax],al
00009FAA  0000              add [eax],al
00009FAC  0000              add [eax],al
00009FAE  0000              add [eax],al
00009FB0  0000              add [eax],al
00009FB2  0000              add [eax],al
00009FB4  0000              add [eax],al
00009FB6  0000              add [eax],al
00009FB8  0000              add [eax],al
00009FBA  0000              add [eax],al
00009FBC  0000              add [eax],al
00009FBE  0000              add [eax],al
00009FC0  0000              add [eax],al
00009FC2  0000              add [eax],al
00009FC4  0000              add [eax],al
00009FC6  0000              add [eax],al
00009FC8  0000              add [eax],al
00009FCA  0000              add [eax],al
00009FCC  0000              add [eax],al
00009FCE  0000              add [eax],al
00009FD0  0000              add [eax],al
00009FD2  0000              add [eax],al
00009FD4  0000              add [eax],al
00009FD6  0000              add [eax],al
00009FD8  0000              add [eax],al
00009FDA  0000              add [eax],al
00009FDC  0000              add [eax],al
00009FDE  0000              add [eax],al
00009FE0  0000              add [eax],al
00009FE2  0000              add [eax],al
00009FE4  0000              add [eax],al
00009FE6  0000              add [eax],al
00009FE8  0000              add [eax],al
00009FEA  0000              add [eax],al
00009FEC  0000              add [eax],al
00009FEE  0000              add [eax],al
00009FF0  0000              add [eax],al
00009FF2  0000              add [eax],al
00009FF4  0000              add [eax],al
00009FF6  0000              add [eax],al
00009FF8  0000              add [eax],al
00009FFA  0000              add [eax],al
00009FFC  0000              add [eax],al
00009FFE  0000              add [eax],al
0000A000  0000              add [eax],al
0000A002  0000              add [eax],al
0000A004  0000              add [eax],al
0000A006  0000              add [eax],al
0000A008  0000              add [eax],al
0000A00A  0000              add [eax],al
0000A00C  0000              add [eax],al
0000A00E  0000              add [eax],al
0000A010  0000              add [eax],al
0000A012  0000              add [eax],al
0000A014  0000              add [eax],al
0000A016  0000              add [eax],al
0000A018  0000              add [eax],al
0000A01A  0000              add [eax],al
0000A01C  0000              add [eax],al
0000A01E  0000              add [eax],al
0000A020  0000              add [eax],al
0000A022  0000              add [eax],al
0000A024  0000              add [eax],al
0000A026  0000              add [eax],al
0000A028  0000              add [eax],al
0000A02A  0000              add [eax],al
0000A02C  0000              add [eax],al
0000A02E  0000              add [eax],al
0000A030  0000              add [eax],al
0000A032  0000              add [eax],al
0000A034  0000              add [eax],al
0000A036  0000              add [eax],al
0000A038  0000              add [eax],al
0000A03A  0000              add [eax],al
0000A03C  0000              add [eax],al
0000A03E  0000              add [eax],al
0000A040  0000              add [eax],al
0000A042  0000              add [eax],al
0000A044  0000              add [eax],al
0000A046  0000              add [eax],al
0000A048  0000              add [eax],al
0000A04A  0000              add [eax],al
0000A04C  0000              add [eax],al
0000A04E  0000              add [eax],al
0000A050  0000              add [eax],al
0000A052  0000              add [eax],al
0000A054  0000              add [eax],al
0000A056  0000              add [eax],al
0000A058  0000              add [eax],al
0000A05A  0000              add [eax],al
0000A05C  0000              add [eax],al
0000A05E  0000              add [eax],al
0000A060  0000              add [eax],al
0000A062  0000              add [eax],al
0000A064  0000              add [eax],al
0000A066  0000              add [eax],al
0000A068  0000              add [eax],al
0000A06A  0000              add [eax],al
0000A06C  0000              add [eax],al
0000A06E  0000              add [eax],al
0000A070  0000              add [eax],al
0000A072  0000              add [eax],al
0000A074  0000              add [eax],al
0000A076  0000              add [eax],al
0000A078  0000              add [eax],al
0000A07A  0000              add [eax],al
0000A07C  0000              add [eax],al
0000A07E  0000              add [eax],al
0000A080  0000              add [eax],al
0000A082  0000              add [eax],al
0000A084  0000              add [eax],al
0000A086  0000              add [eax],al
0000A088  0000              add [eax],al
0000A08A  0000              add [eax],al
0000A08C  0000              add [eax],al
0000A08E  0000              add [eax],al
0000A090  0000              add [eax],al
0000A092  0000              add [eax],al
0000A094  0000              add [eax],al
0000A096  0000              add [eax],al
0000A098  0000              add [eax],al
0000A09A  0000              add [eax],al
0000A09C  0000              add [eax],al
0000A09E  0000              add [eax],al
0000A0A0  0000              add [eax],al
0000A0A2  0000              add [eax],al
0000A0A4  0000              add [eax],al
0000A0A6  0000              add [eax],al
0000A0A8  0000              add [eax],al
0000A0AA  0000              add [eax],al
0000A0AC  0000              add [eax],al
0000A0AE  0000              add [eax],al
0000A0B0  0000              add [eax],al
0000A0B2  0000              add [eax],al
0000A0B4  0000              add [eax],al
0000A0B6  0000              add [eax],al
0000A0B8  0000              add [eax],al
0000A0BA  0000              add [eax],al
0000A0BC  0000              add [eax],al
0000A0BE  0000              add [eax],al
0000A0C0  0000              add [eax],al
0000A0C2  0000              add [eax],al
0000A0C4  0000              add [eax],al
0000A0C6  0000              add [eax],al
0000A0C8  0000              add [eax],al
0000A0CA  0000              add [eax],al
0000A0CC  0000              add [eax],al
0000A0CE  0000              add [eax],al
0000A0D0  0000              add [eax],al
0000A0D2  0000              add [eax],al
0000A0D4  0000              add [eax],al
0000A0D6  0000              add [eax],al
0000A0D8  0000              add [eax],al
0000A0DA  0000              add [eax],al
0000A0DC  0000              add [eax],al
0000A0DE  0000              add [eax],al
0000A0E0  0000              add [eax],al
0000A0E2  0000              add [eax],al
0000A0E4  0000              add [eax],al
0000A0E6  0000              add [eax],al
0000A0E8  0000              add [eax],al
0000A0EA  0000              add [eax],al
0000A0EC  0000              add [eax],al
0000A0EE  0000              add [eax],al
0000A0F0  0000              add [eax],al
0000A0F2  0000              add [eax],al
0000A0F4  0000              add [eax],al
0000A0F6  0000              add [eax],al
0000A0F8  0000              add [eax],al
0000A0FA  0000              add [eax],al
0000A0FC  0000              add [eax],al
0000A0FE  0000              add [eax],al
0000A100  0000              add [eax],al
0000A102  0000              add [eax],al
0000A104  0000              add [eax],al
0000A106  0000              add [eax],al
0000A108  0000              add [eax],al
0000A10A  0000              add [eax],al
0000A10C  0000              add [eax],al
0000A10E  0000              add [eax],al
0000A110  0000              add [eax],al
0000A112  0000              add [eax],al
0000A114  0000              add [eax],al
0000A116  0000              add [eax],al
0000A118  0000              add [eax],al
0000A11A  0000              add [eax],al
0000A11C  0000              add [eax],al
0000A11E  0000              add [eax],al
0000A120  0000              add [eax],al
0000A122  0000              add [eax],al
0000A124  0000              add [eax],al
0000A126  0000              add [eax],al
0000A128  0000              add [eax],al
0000A12A  0000              add [eax],al
0000A12C  0000              add [eax],al
0000A12E  0000              add [eax],al
0000A130  0000              add [eax],al
0000A132  0000              add [eax],al
0000A134  0000              add [eax],al
0000A136  0000              add [eax],al
0000A138  0000              add [eax],al
0000A13A  0000              add [eax],al
0000A13C  0000              add [eax],al
0000A13E  0000              add [eax],al
0000A140  0000              add [eax],al
0000A142  0000              add [eax],al
0000A144  0000              add [eax],al
0000A146  0000              add [eax],al
0000A148  0000              add [eax],al
0000A14A  0000              add [eax],al
0000A14C  0000              add [eax],al
0000A14E  0000              add [eax],al
0000A150  0000              add [eax],al
0000A152  0000              add [eax],al
0000A154  0000              add [eax],al
0000A156  0000              add [eax],al
0000A158  0000              add [eax],al
0000A15A  0000              add [eax],al
0000A15C  0000              add [eax],al
0000A15E  0000              add [eax],al
0000A160  0000              add [eax],al
0000A162  0000              add [eax],al
0000A164  0000              add [eax],al
0000A166  0000              add [eax],al
0000A168  0000              add [eax],al
0000A16A  0000              add [eax],al
0000A16C  0000              add [eax],al
0000A16E  0000              add [eax],al
0000A170  0000              add [eax],al
0000A172  0000              add [eax],al
0000A174  0000              add [eax],al
0000A176  0000              add [eax],al
0000A178  0000              add [eax],al
0000A17A  0000              add [eax],al
0000A17C  0000              add [eax],al
0000A17E  0000              add [eax],al
0000A180  0000              add [eax],al
0000A182  0000              add [eax],al
0000A184  0000              add [eax],al
0000A186  0000              add [eax],al
0000A188  0000              add [eax],al
0000A18A  0000              add [eax],al
0000A18C  0000              add [eax],al
0000A18E  0000              add [eax],al
0000A190  0000              add [eax],al
0000A192  0000              add [eax],al
0000A194  0000              add [eax],al
0000A196  0000              add [eax],al
0000A198  0000              add [eax],al
0000A19A  0000              add [eax],al
0000A19C  0000              add [eax],al
0000A19E  0000              add [eax],al
0000A1A0  0000              add [eax],al
0000A1A2  0000              add [eax],al
0000A1A4  0000              add [eax],al
0000A1A6  0000              add [eax],al
0000A1A8  0000              add [eax],al
0000A1AA  0000              add [eax],al
0000A1AC  0000              add [eax],al
0000A1AE  0000              add [eax],al
0000A1B0  0000              add [eax],al
0000A1B2  0000              add [eax],al
0000A1B4  0000              add [eax],al
0000A1B6  0000              add [eax],al
0000A1B8  0000              add [eax],al
0000A1BA  0000              add [eax],al
0000A1BC  0000              add [eax],al
0000A1BE  0000              add [eax],al
0000A1C0  0000              add [eax],al
0000A1C2  0000              add [eax],al
0000A1C4  0000              add [eax],al
0000A1C6  0000              add [eax],al
0000A1C8  0000              add [eax],al
0000A1CA  0000              add [eax],al
0000A1CC  0000              add [eax],al
0000A1CE  0000              add [eax],al
0000A1D0  0000              add [eax],al
0000A1D2  0000              add [eax],al
0000A1D4  0000              add [eax],al
0000A1D6  0000              add [eax],al
0000A1D8  0000              add [eax],al
0000A1DA  0000              add [eax],al
0000A1DC  0000              add [eax],al
0000A1DE  0000              add [eax],al
0000A1E0  0000              add [eax],al
0000A1E2  0000              add [eax],al
0000A1E4  0000              add [eax],al
0000A1E6  0000              add [eax],al
0000A1E8  0000              add [eax],al
0000A1EA  0000              add [eax],al
0000A1EC  0000              add [eax],al
0000A1EE  0000              add [eax],al
0000A1F0  0000              add [eax],al
0000A1F2  0000              add [eax],al
0000A1F4  0000              add [eax],al
0000A1F6  0000              add [eax],al
0000A1F8  0000              add [eax],al
0000A1FA  0000              add [eax],al
0000A1FC  0000              add [eax],al
0000A1FE  0000              add [eax],al
0000A200  0000              add [eax],al
0000A202  0000              add [eax],al
0000A204  0000              add [eax],al
0000A206  0000              add [eax],al
0000A208  0000              add [eax],al
0000A20A  0000              add [eax],al
0000A20C  0000              add [eax],al
0000A20E  0000              add [eax],al
0000A210  0000              add [eax],al
0000A212  0000              add [eax],al
0000A214  0000              add [eax],al
0000A216  0000              add [eax],al
0000A218  0000              add [eax],al
0000A21A  0000              add [eax],al
0000A21C  0000              add [eax],al
0000A21E  0000              add [eax],al
0000A220  0000              add [eax],al
0000A222  0000              add [eax],al
0000A224  0000              add [eax],al
0000A226  0000              add [eax],al
0000A228  0000              add [eax],al
0000A22A  0000              add [eax],al
0000A22C  0000              add [eax],al
0000A22E  0000              add [eax],al
0000A230  0000              add [eax],al
0000A232  0000              add [eax],al
0000A234  0000              add [eax],al
0000A236  0000              add [eax],al
0000A238  0000              add [eax],al
0000A23A  0000              add [eax],al
0000A23C  0000              add [eax],al
0000A23E  0000              add [eax],al
0000A240  0000              add [eax],al
0000A242  0000              add [eax],al
0000A244  0000              add [eax],al
0000A246  0000              add [eax],al
0000A248  0000              add [eax],al
0000A24A  0000              add [eax],al
0000A24C  0000              add [eax],al
0000A24E  0000              add [eax],al
0000A250  0000              add [eax],al
0000A252  0000              add [eax],al
0000A254  0000              add [eax],al
0000A256  0000              add [eax],al
0000A258  0000              add [eax],al
0000A25A  0000              add [eax],al
0000A25C  0000              add [eax],al
0000A25E  0000              add [eax],al
0000A260  0000              add [eax],al
0000A262  0000              add [eax],al
0000A264  0000              add [eax],al
0000A266  0000              add [eax],al
0000A268  0000              add [eax],al
0000A26A  0000              add [eax],al
0000A26C  0000              add [eax],al
0000A26E  0000              add [eax],al
0000A270  0000              add [eax],al
0000A272  0000              add [eax],al
0000A274  0000              add [eax],al
0000A276  0000              add [eax],al
0000A278  0000              add [eax],al
0000A27A  0000              add [eax],al
0000A27C  0000              add [eax],al
0000A27E  0000              add [eax],al
0000A280  0000              add [eax],al
0000A282  0000              add [eax],al
0000A284  0000              add [eax],al
0000A286  0000              add [eax],al
0000A288  0000              add [eax],al
0000A28A  0000              add [eax],al
0000A28C  0000              add [eax],al
0000A28E  0000              add [eax],al
0000A290  0000              add [eax],al
0000A292  0000              add [eax],al
0000A294  0000              add [eax],al
0000A296  0000              add [eax],al
0000A298  0000              add [eax],al
0000A29A  0000              add [eax],al
0000A29C  0000              add [eax],al
0000A29E  0000              add [eax],al
0000A2A0  0000              add [eax],al
0000A2A2  0000              add [eax],al
0000A2A4  0000              add [eax],al
0000A2A6  0000              add [eax],al
0000A2A8  0000              add [eax],al
0000A2AA  0000              add [eax],al
0000A2AC  0000              add [eax],al
0000A2AE  0000              add [eax],al
0000A2B0  0000              add [eax],al
0000A2B2  0000              add [eax],al
0000A2B4  0000              add [eax],al
0000A2B6  0000              add [eax],al
0000A2B8  0000              add [eax],al
0000A2BA  0000              add [eax],al
0000A2BC  0000              add [eax],al
0000A2BE  0000              add [eax],al
0000A2C0  0000              add [eax],al
0000A2C2  0000              add [eax],al
0000A2C4  0000              add [eax],al
0000A2C6  0000              add [eax],al
0000A2C8  0000              add [eax],al
0000A2CA  0000              add [eax],al
0000A2CC  0000              add [eax],al
0000A2CE  0000              add [eax],al
0000A2D0  0000              add [eax],al
0000A2D2  0000              add [eax],al
0000A2D4  0000              add [eax],al
0000A2D6  0000              add [eax],al
0000A2D8  0000              add [eax],al
0000A2DA  0000              add [eax],al
0000A2DC  0000              add [eax],al
0000A2DE  0000              add [eax],al
0000A2E0  0000              add [eax],al
0000A2E2  0000              add [eax],al
0000A2E4  0000              add [eax],al
0000A2E6  0000              add [eax],al
0000A2E8  0000              add [eax],al
0000A2EA  0000              add [eax],al
0000A2EC  0000              add [eax],al
0000A2EE  0000              add [eax],al
0000A2F0  0000              add [eax],al
0000A2F2  0000              add [eax],al
0000A2F4  0000              add [eax],al
0000A2F6  0000              add [eax],al
0000A2F8  0000              add [eax],al
0000A2FA  0000              add [eax],al
0000A2FC  0000              add [eax],al
0000A2FE  0000              add [eax],al
0000A300  0000              add [eax],al
0000A302  0000              add [eax],al
0000A304  0000              add [eax],al
0000A306  0000              add [eax],al
0000A308  0000              add [eax],al
0000A30A  0000              add [eax],al
0000A30C  0000              add [eax],al
0000A30E  0000              add [eax],al
0000A310  0000              add [eax],al
0000A312  0000              add [eax],al
0000A314  0000              add [eax],al
0000A316  0000              add [eax],al
0000A318  0000              add [eax],al
0000A31A  0000              add [eax],al
0000A31C  0000              add [eax],al
0000A31E  0000              add [eax],al
0000A320  0000              add [eax],al
0000A322  0000              add [eax],al
0000A324  0000              add [eax],al
0000A326  0000              add [eax],al
0000A328  0000              add [eax],al
0000A32A  0000              add [eax],al
0000A32C  0000              add [eax],al
0000A32E  0000              add [eax],al
0000A330  0000              add [eax],al
0000A332  0000              add [eax],al
0000A334  0000              add [eax],al
0000A336  0000              add [eax],al
0000A338  0000              add [eax],al
0000A33A  0000              add [eax],al
0000A33C  0000              add [eax],al
0000A33E  0000              add [eax],al
0000A340  0000              add [eax],al
0000A342  0000              add [eax],al
0000A344  0000              add [eax],al
0000A346  0000              add [eax],al
0000A348  1B00              sbb eax,[eax]
0000A34A  0000              add [eax],al
0000A34C  00F8              add al,bh
0000A34E  40                inc eax
0000A34F  000E              add [esi],cl
0000A351  0000              add [eax],al
0000A353  0000              add [eax],al
0000A355  F040              lock inc eax
0000A357  00FF              add bh,bh
0000A359  0300              add eax,[eax]
0000A35B  0000              add [eax],al
0000A35D  F240              repne inc eax
0000A35F  00546869          add [eax+ebp*2+0x69],dl
0000A363  7320              jnc 0xa385
0000A365  6973205461736B    imul esi,[ebx+0x20],dword 0x6b736154
0000A36C  204100            and [ecx+0x0],al
0000A36F  0000              add [eax],al
0000A371  0000              add [eax],al
0000A373  0000              add [eax],al
0000A375  0000              add [eax],al
0000A377  0000              add [eax],al
0000A379  0000              add [eax],al
0000A37B  0000              add [eax],al
0000A37D  0000              add [eax],al
0000A37F  0000              add [eax],al
0000A381  0000              add [eax],al
0000A383  0000              add [eax],al
0000A385  0000              add [eax],al
0000A387  0000              add [eax],al
0000A389  0000              add [eax],al
0000A38B  0000              add [eax],al
0000A38D  0000              add [eax],al
0000A38F  0000              add [eax],al
0000A391  0000              add [eax],al
0000A393  0000              add [eax],al
0000A395  0000              add [eax],al
0000A397  0000              add [eax],al
0000A399  0000              add [eax],al
0000A39B  0000              add [eax],al
0000A39D  0000              add [eax],al
0000A39F  0000              add [eax],al
0000A3A1  0000              add [eax],al
0000A3A3  0000              add [eax],al
0000A3A5  0000              add [eax],al
0000A3A7  0000              add [eax],al
0000A3A9  0000              add [eax],al
0000A3AB  0000              add [eax],al
0000A3AD  0000              add [eax],al
0000A3AF  0000              add [eax],al
0000A3B1  0000              add [eax],al
0000A3B3  0000              add [eax],al
0000A3B5  0000              add [eax],al
0000A3B7  0000              add [eax],al
0000A3B9  0000              add [eax],al
0000A3BB  0000              add [eax],al
0000A3BD  0000              add [eax],al
0000A3BF  0000              add [eax],al
0000A3C1  0000              add [eax],al
0000A3C3  0000              add [eax],al
0000A3C5  0000              add [eax],al
0000A3C7  0000              add [eax],al
0000A3C9  0000              add [eax],al
0000A3CB  0000              add [eax],al
0000A3CD  0000              add [eax],al
0000A3CF  0000              add [eax],al
0000A3D1  0000              add [eax],al
0000A3D3  0000              add [eax],al
0000A3D5  0000              add [eax],al
0000A3D7  0000              add [eax],al
0000A3D9  0000              add [eax],al
0000A3DB  0000              add [eax],al
0000A3DD  0000              add [eax],al
0000A3DF  0000              add [eax],al
0000A3E1  0000              add [eax],al
0000A3E3  0000              add [eax],al
0000A3E5  0000              add [eax],al
0000A3E7  0000              add [eax],al
0000A3E9  0000              add [eax],al
0000A3EB  0000              add [eax],al
0000A3ED  0000              add [eax],al
0000A3EF  0000              add [eax],al
0000A3F1  0000              add [eax],al
0000A3F3  0000              add [eax],al
0000A3F5  0000              add [eax],al
0000A3F7  0000              add [eax],al
0000A3F9  0000              add [eax],al
0000A3FB  0000              add [eax],al
0000A3FD  0000              add [eax],al
0000A3FF  0000              add [eax],al
0000A401  0000              add [eax],al
0000A403  0000              add [eax],al
0000A405  0000              add [eax],al
0000A407  0000              add [eax],al
0000A409  0000              add [eax],al
0000A40B  0000              add [eax],al
0000A40D  0000              add [eax],al
0000A40F  0000              add [eax],al
0000A411  0000              add [eax],al
0000A413  0000              add [eax],al
0000A415  0000              add [eax],al
0000A417  0000              add [eax],al
0000A419  0000              add [eax],al
0000A41B  0000              add [eax],al
0000A41D  0000              add [eax],al
0000A41F  0000              add [eax],al
0000A421  0000              add [eax],al
0000A423  0000              add [eax],al
0000A425  0000              add [eax],al
0000A427  0000              add [eax],al
0000A429  0000              add [eax],al
0000A42B  0000              add [eax],al
0000A42D  0000              add [eax],al
0000A42F  0000              add [eax],al
0000A431  0000              add [eax],al
0000A433  0000              add [eax],al
0000A435  0000              add [eax],al
0000A437  0000              add [eax],al
0000A439  0000              add [eax],al
0000A43B  0000              add [eax],al
0000A43D  0000              add [eax],al
0000A43F  0000              add [eax],al
0000A441  0000              add [eax],al
0000A443  0000              add [eax],al
0000A445  0000              add [eax],al
0000A447  0000              add [eax],al
0000A449  0000              add [eax],al
0000A44B  0000              add [eax],al
0000A44D  0000              add [eax],al
0000A44F  0000              add [eax],al
0000A451  0000              add [eax],al
0000A453  0000              add [eax],al
0000A455  0000              add [eax],al
0000A457  0000              add [eax],al
0000A459  0000              add [eax],al
0000A45B  0000              add [eax],al
0000A45D  0000              add [eax],al
0000A45F  0000              add [eax],al
0000A461  0000              add [eax],al
0000A463  0000              add [eax],al
0000A465  0000              add [eax],al
0000A467  0000              add [eax],al
0000A469  0000              add [eax],al
0000A46B  0000              add [eax],al
0000A46D  0000              add [eax],al
0000A46F  0000              add [eax],al
0000A471  0000              add [eax],al
0000A473  0000              add [eax],al
0000A475  0000              add [eax],al
0000A477  0000              add [eax],al
0000A479  0000              add [eax],al
0000A47B  0000              add [eax],al
0000A47D  0000              add [eax],al
0000A47F  0000              add [eax],al
0000A481  0000              add [eax],al
0000A483  0000              add [eax],al
0000A485  0000              add [eax],al
0000A487  0000              add [eax],al
0000A489  0000              add [eax],al
0000A48B  0000              add [eax],al
0000A48D  0000              add [eax],al
0000A48F  0000              add [eax],al
0000A491  0000              add [eax],al
0000A493  0000              add [eax],al
0000A495  0000              add [eax],al
0000A497  0000              add [eax],al
0000A499  0000              add [eax],al
0000A49B  0000              add [eax],al
0000A49D  0000              add [eax],al
0000A49F  0000              add [eax],al
0000A4A1  0000              add [eax],al
0000A4A3  0000              add [eax],al
0000A4A5  0000              add [eax],al
0000A4A7  0000              add [eax],al
0000A4A9  0000              add [eax],al
0000A4AB  0000              add [eax],al
0000A4AD  0000              add [eax],al
0000A4AF  0000              add [eax],al
0000A4B1  0000              add [eax],al
0000A4B3  0000              add [eax],al
0000A4B5  0000              add [eax],al
0000A4B7  0000              add [eax],al
0000A4B9  0000              add [eax],al
0000A4BB  0000              add [eax],al
0000A4BD  0000              add [eax],al
0000A4BF  0000              add [eax],al
0000A4C1  0000              add [eax],al
0000A4C3  0000              add [eax],al
0000A4C5  0000              add [eax],al
0000A4C7  0000              add [eax],al
0000A4C9  0000              add [eax],al
0000A4CB  0000              add [eax],al
0000A4CD  0000              add [eax],al
0000A4CF  0000              add [eax],al
0000A4D1  0000              add [eax],al
0000A4D3  0000              add [eax],al
0000A4D5  0000              add [eax],al
0000A4D7  0000              add [eax],al
0000A4D9  0000              add [eax],al
0000A4DB  0000              add [eax],al
0000A4DD  0000              add [eax],al
0000A4DF  0000              add [eax],al
0000A4E1  0000              add [eax],al
0000A4E3  0000              add [eax],al
0000A4E5  0000              add [eax],al
0000A4E7  0000              add [eax],al
0000A4E9  0000              add [eax],al
0000A4EB  0000              add [eax],al
0000A4ED  0000              add [eax],al
0000A4EF  0000              add [eax],al
0000A4F1  0000              add [eax],al
0000A4F3  0000              add [eax],al
0000A4F5  0000              add [eax],al
0000A4F7  0000              add [eax],al
0000A4F9  0000              add [eax],al
0000A4FB  0000              add [eax],al
0000A4FD  0000              add [eax],al
0000A4FF  0000              add [eax],al
0000A501  0000              add [eax],al
0000A503  0000              add [eax],al
0000A505  0000              add [eax],al
0000A507  0000              add [eax],al
0000A509  0000              add [eax],al
0000A50B  0000              add [eax],al
0000A50D  0000              add [eax],al
0000A50F  0000              add [eax],al
0000A511  0000              add [eax],al
0000A513  0000              add [eax],al
0000A515  0000              add [eax],al
0000A517  0000              add [eax],al
0000A519  0000              add [eax],al
0000A51B  0000              add [eax],al
0000A51D  0000              add [eax],al
0000A51F  0000              add [eax],al
0000A521  0000              add [eax],al
0000A523  0000              add [eax],al
0000A525  0000              add [eax],al
0000A527  0000              add [eax],al
0000A529  0000              add [eax],al
0000A52B  0000              add [eax],al
0000A52D  0000              add [eax],al
0000A52F  0000              add [eax],al
0000A531  0000              add [eax],al
0000A533  0000              add [eax],al
0000A535  0000              add [eax],al
0000A537  0000              add [eax],al
0000A539  0000              add [eax],al
0000A53B  0000              add [eax],al
0000A53D  0000              add [eax],al
0000A53F  0000              add [eax],al
0000A541  0000              add [eax],al
0000A543  0000              add [eax],al
0000A545  0000              add [eax],al
0000A547  0000              add [eax],al
0000A549  0000              add [eax],al
0000A54B  0000              add [eax],al
0000A54D  0000              add [eax],al
0000A54F  0000              add [eax],al
0000A551  0000              add [eax],al
0000A553  0000              add [eax],al
0000A555  0000              add [eax],al
0000A557  0000              add [eax],al
0000A559  0000              add [eax],al
0000A55B  0000              add [eax],al
0000A55D  0000              add [eax],al
0000A55F  0000              add [eax],al
0000A561  0000              add [eax],al
0000A563  0000              add [eax],al
0000A565  0000              add [eax],al
0000A567  0000              add [eax],al
0000A569  0000              add [eax],al
0000A56B  0000              add [eax],al
0000A56D  0000              add [eax],al
0000A56F  0000              add [eax],al
0000A571  0000              add [eax],al
0000A573  0000              add [eax],al
0000A575  0000              add [eax],al
0000A577  0000              add [eax],al
0000A579  0000              add [eax],al
0000A57B  0000              add [eax],al
0000A57D  0000              add [eax],al
0000A57F  0000              add [eax],al
0000A581  0000              add [eax],al
0000A583  0000              add [eax],al
0000A585  0000              add [eax],al
0000A587  0000              add [eax],al
0000A589  0000              add [eax],al
0000A58B  0000              add [eax],al
0000A58D  0000              add [eax],al
0000A58F  0000              add [eax],al
0000A591  0000              add [eax],al
0000A593  0000              add [eax],al
0000A595  0000              add [eax],al
0000A597  0000              add [eax],al
0000A599  0000              add [eax],al
0000A59B  0000              add [eax],al
0000A59D  0000              add [eax],al
0000A59F  0000              add [eax],al
0000A5A1  0000              add [eax],al
0000A5A3  0000              add [eax],al
0000A5A5  0000              add [eax],al
0000A5A7  0000              add [eax],al
0000A5A9  0000              add [eax],al
0000A5AB  0000              add [eax],al
0000A5AD  0000              add [eax],al
0000A5AF  0000              add [eax],al
0000A5B1  0000              add [eax],al
0000A5B3  0000              add [eax],al
0000A5B5  0000              add [eax],al
0000A5B7  0000              add [eax],al
0000A5B9  0000              add [eax],al
0000A5BB  0000              add [eax],al
0000A5BD  0000              add [eax],al
0000A5BF  0000              add [eax],al
0000A5C1  0000              add [eax],al
0000A5C3  0000              add [eax],al
0000A5C5  0000              add [eax],al
0000A5C7  0000              add [eax],al
0000A5C9  0000              add [eax],al
0000A5CB  0000              add [eax],al
0000A5CD  0000              add [eax],al
0000A5CF  0000              add [eax],al
0000A5D1  0000              add [eax],al
0000A5D3  0000              add [eax],al
0000A5D5  0000              add [eax],al
0000A5D7  0000              add [eax],al
0000A5D9  0000              add [eax],al
0000A5DB  0000              add [eax],al
0000A5DD  0000              add [eax],al
0000A5DF  0000              add [eax],al
0000A5E1  0000              add [eax],al
0000A5E3  0000              add [eax],al
0000A5E5  0000              add [eax],al
0000A5E7  0000              add [eax],al
0000A5E9  0000              add [eax],al
0000A5EB  0000              add [eax],al
0000A5ED  0000              add [eax],al
0000A5EF  0000              add [eax],al
0000A5F1  0000              add [eax],al
0000A5F3  0000              add [eax],al
0000A5F5  0000              add [eax],al
0000A5F7  0000              add [eax],al
0000A5F9  0000              add [eax],al
0000A5FB  0000              add [eax],al
0000A5FD  0000              add [eax],al
0000A5FF  0000              add [eax],al
0000A601  0000              add [eax],al
0000A603  0000              add [eax],al
0000A605  0000              add [eax],al
0000A607  0000              add [eax],al
0000A609  0000              add [eax],al
0000A60B  0000              add [eax],al
0000A60D  0000              add [eax],al
0000A60F  0000              add [eax],al
0000A611  0000              add [eax],al
0000A613  0000              add [eax],al
0000A615  0000              add [eax],al
0000A617  0000              add [eax],al
0000A619  0000              add [eax],al
0000A61B  0000              add [eax],al
0000A61D  0000              add [eax],al
0000A61F  0000              add [eax],al
0000A621  0000              add [eax],al
0000A623  0000              add [eax],al
0000A625  0000              add [eax],al
0000A627  0000              add [eax],al
0000A629  0000              add [eax],al
0000A62B  0000              add [eax],al
0000A62D  0000              add [eax],al
0000A62F  0000              add [eax],al
0000A631  0000              add [eax],al
0000A633  0000              add [eax],al
0000A635  0000              add [eax],al
0000A637  0000              add [eax],al
0000A639  0000              add [eax],al
0000A63B  0000              add [eax],al
0000A63D  0000              add [eax],al
0000A63F  0000              add [eax],al
0000A641  0000              add [eax],al
0000A643  0000              add [eax],al
0000A645  0000              add [eax],al
0000A647  0000              add [eax],al
0000A649  0000              add [eax],al
0000A64B  0000              add [eax],al
0000A64D  0000              add [eax],al
0000A64F  0000              add [eax],al
0000A651  0000              add [eax],al
0000A653  0000              add [eax],al
0000A655  0000              add [eax],al
0000A657  0000              add [eax],al
0000A659  0000              add [eax],al
0000A65B  0000              add [eax],al
0000A65D  0000              add [eax],al
0000A65F  0000              add [eax],al
0000A661  0000              add [eax],al
0000A663  0000              add [eax],al
0000A665  0000              add [eax],al
0000A667  0000              add [eax],al
0000A669  0000              add [eax],al
0000A66B  0000              add [eax],al
0000A66D  0000              add [eax],al
0000A66F  0000              add [eax],al
0000A671  0000              add [eax],al
0000A673  0000              add [eax],al
0000A675  0000              add [eax],al
0000A677  0000              add [eax],al
0000A679  0000              add [eax],al
0000A67B  0000              add [eax],al
0000A67D  0000              add [eax],al
0000A67F  0000              add [eax],al
0000A681  0000              add [eax],al
0000A683  0000              add [eax],al
0000A685  0000              add [eax],al
0000A687  0000              add [eax],al
0000A689  0000              add [eax],al
0000A68B  0000              add [eax],al
0000A68D  0000              add [eax],al
0000A68F  0000              add [eax],al
0000A691  0000              add [eax],al
0000A693  0000              add [eax],al
0000A695  0000              add [eax],al
0000A697  0000              add [eax],al
0000A699  0000              add [eax],al
0000A69B  0000              add [eax],al
0000A69D  0000              add [eax],al
0000A69F  0000              add [eax],al
0000A6A1  0000              add [eax],al
0000A6A3  0000              add [eax],al
0000A6A5  0000              add [eax],al
0000A6A7  0000              add [eax],al
0000A6A9  0000              add [eax],al
0000A6AB  0000              add [eax],al
0000A6AD  0000              add [eax],al
0000A6AF  0000              add [eax],al
0000A6B1  0000              add [eax],al
0000A6B3  0000              add [eax],al
0000A6B5  0000              add [eax],al
0000A6B7  0000              add [eax],al
0000A6B9  0000              add [eax],al
0000A6BB  0000              add [eax],al
0000A6BD  0000              add [eax],al
0000A6BF  0000              add [eax],al
0000A6C1  0000              add [eax],al
0000A6C3  0000              add [eax],al
0000A6C5  0000              add [eax],al
0000A6C7  0000              add [eax],al
0000A6C9  0000              add [eax],al
0000A6CB  0000              add [eax],al
0000A6CD  0000              add [eax],al
0000A6CF  0000              add [eax],al
0000A6D1  0000              add [eax],al
0000A6D3  0000              add [eax],al
0000A6D5  0000              add [eax],al
0000A6D7  0000              add [eax],al
0000A6D9  0000              add [eax],al
0000A6DB  0000              add [eax],al
0000A6DD  0000              add [eax],al
0000A6DF  0000              add [eax],al
0000A6E1  0000              add [eax],al
0000A6E3  0000              add [eax],al
0000A6E5  0000              add [eax],al
0000A6E7  0000              add [eax],al
0000A6E9  0000              add [eax],al
0000A6EB  0000              add [eax],al
0000A6ED  0000              add [eax],al
0000A6EF  0000              add [eax],al
0000A6F1  0000              add [eax],al
0000A6F3  0000              add [eax],al
0000A6F5  0000              add [eax],al
0000A6F7  0000              add [eax],al
0000A6F9  0000              add [eax],al
0000A6FB  0000              add [eax],al
0000A6FD  0000              add [eax],al
0000A6FF  0000              add [eax],al
0000A701  0000              add [eax],al
0000A703  0000              add [eax],al
0000A705  0000              add [eax],al
0000A707  0000              add [eax],al
0000A709  0000              add [eax],al
0000A70B  0000              add [eax],al
0000A70D  0000              add [eax],al
0000A70F  0000              add [eax],al
0000A711  0000              add [eax],al
0000A713  0000              add [eax],al
0000A715  0000              add [eax],al
0000A717  0000              add [eax],al
0000A719  0000              add [eax],al
0000A71B  0000              add [eax],al
0000A71D  0000              add [eax],al
0000A71F  0000              add [eax],al
0000A721  0000              add [eax],al
0000A723  0000              add [eax],al
0000A725  0000              add [eax],al
0000A727  0000              add [eax],al
0000A729  0000              add [eax],al
0000A72B  0000              add [eax],al
0000A72D  0000              add [eax],al
0000A72F  0000              add [eax],al
0000A731  0000              add [eax],al
0000A733  0000              add [eax],al
0000A735  0000              add [eax],al
0000A737  0000              add [eax],al
0000A739  0000              add [eax],al
0000A73B  0000              add [eax],al
0000A73D  0000              add [eax],al
0000A73F  0000              add [eax],al
0000A741  0000              add [eax],al
0000A743  0000              add [eax],al
0000A745  0000              add [eax],al
0000A747  0000              add [eax],al
0000A749  0000              add [eax],al
0000A74B  0000              add [eax],al
0000A74D  0000              add [eax],al
0000A74F  0000              add [eax],al
0000A751  0000              add [eax],al
0000A753  0000              add [eax],al
0000A755  0000              add [eax],al
0000A757  0000              add [eax],al
0000A759  0000              add [eax],al
0000A75B  0000              add [eax],al
0000A75D  0000              add [eax],al
0000A75F  0000              add [eax],al
0000A761  0000              add [eax],al
0000A763  0000              add [eax],al
0000A765  0000              add [eax],al
0000A767  0000              add [eax],al
0000A769  0000              add [eax],al
0000A76B  0000              add [eax],al
0000A76D  0000              add [eax],al
0000A76F  0066B8            add [esi-0x48],ah
0000A772  0F008ED8BD0000    str [esi+0xbdd8]
0000A779  0000              add [eax],al
0000A77B  B60C              mov dh,0xc
0000A77D  B223              mov dl,0x23
0000A77F  66BB0C00          mov bx,0xc
0000A783  9A000000004900    call dword 0x49:0x0
0000A78A  EBFE              jmp short 0xa78a
