00009000  E959000000        jmp dword 0x905e
00009005  0000              add [eax],al
00009007  0000              add [eax],al
00009009  0000              add [eax],al
0000900B  006200            add [edx+0x0],ah
0000900E  0000              add [eax],al
00009010  00F8              add al,bh
00009012  40                inc eax
00009013  00FF              add bh,bh
00009015  7F00              jg 0x9017
00009017  800BF3            or byte [ebx],0xf3
0000901A  40                inc eax
0000901B  000B              add [ebx],cl
0000901D  0000              add [eax],al
0000901F  0000              add [eax],al
00009021  92                xchg eax,edx
00009022  40                inc eax
00009023  000F              add [edi],cl
00009025  0000              add [eax],al
00009027  0000              add [eax],al
00009029  F240              repne inc eax
0000902B  00FF              add bh,bh
0000902D  0000              add [eax],al
0000902F  0000              add [eax],al
00009031  92                xchg eax,edx
00009032  40                inc eax
00009033  00FF              add bh,bh
00009035  0000              add [eax],al
00009037  0000              add [eax],al
00009039  F240              repne inc eax
0000903B  004001            add [eax+0x1],al
0000903E  0000              add [eax],al
00009040  008900008700      add [ecx+0x870000],cl
00009046  0000              add [eax],al
00009048  009840000000      add [eax+0x40],bl
0000904E  40                inc eax
0000904F  0000              add [eax],al
00009051  EC                in al,dx
00009052  0000              add [eax],al
00009054  4F                dec edi
00009055  0000              add [eax],al
00009057  0000              add [eax],al
00009059  0000              add [eax],al
0000905B  008CC88ED88EC0    add [eax+ecx*8-0x3f712772],cl
00009062  8ED0              mov ss,eax
00009064  BC007C66BE        mov esp,0xbe667c00
00009069  90                nop
0000906A  92                xchg eax,edx
0000906B  0000              add [eax],al
0000906D  66BF0C90          mov di,0x900c
00009071  0000              add [eax],al
00009073  E8960066BE        call dword 0xbe66910e
00009078  3091000066BF      xor [ecx-0x409a0000],dl
0000907E  1C90              sbb al,0x90
00009080  0000              add [eax],al
00009082  E8870066BE        call dword 0xbe66910e
00009087  3C91              cmp al,0x91
00009089  0000              add [eax],al
0000908B  66BF2490          mov di,0x9024
0000908F  0000              add [eax],al
00009091  E8780066BE        call dword 0xbe66910e
00009096  7C93              jl 0x902b
00009098  0000              add [eax],al
0000909A  66BF2C90          mov di,0x902c
0000909E  0000              add [eax],al
000090A0  E8690066BE        call dword 0xbe66910e
000090A5  7C94              jl 0x903b
000090A7  0000              add [eax],al
000090A9  66BF3490          mov di,0x9034
000090AD  0000              add [eax],al
000090AF  E85A0066BE        call dword 0xbe66910e
000090B4  F4                hlt
000090B5  92                xchg eax,edx
000090B6  0000              add [eax],al
000090B8  66BF4490          mov di,0x9044
000090BC  0000              add [eax],al
000090BE  E84B0066BE        call dword 0xbe66910e
000090C3  4C                dec esp
000090C4  91                xchg eax,ecx
000090C5  0000              add [eax],al
000090C7  66BF3C90          mov di,0x903c
000090CB  0000              add [eax],al
000090CD  E83C0066B8        call dword 0xb866910e
000090D2  0000              add [eax],al
000090D4  0000              add [eax],al
000090D6  8CD8              mov eax,ds
000090D8  66C1E004          shl ax,byte 0x4
000090DC  66050490          add ax,0x9004
000090E0  0000              add [eax],al
000090E2  66A356900F01      mov [0x10f9056],ax
000090E8  16                push ss
000090E9  54                push esp
000090EA  90                nop
000090EB  FA                cli
000090EC  E492              in al,0x92
000090EE  0C02              or al,0x2
000090F0  E692              out 0x92,al
000090F2  0F20C0            mov eax,cr0
000090F5  6683C801          or ax,byte +0x1
000090F9  0F22C0            mov cr0,eax
000090FC  B838000F00        mov eax,0xf0038
00009101  D86A33            fsubr dword [edx+0x33]
00009104  68FF006A0B        push dword 0xb6a00ff
00009109  6A00              push byte +0x0
0000910B  CB                retf
0000910C  6650              push ax
0000910E  66B80000          mov ax,0x0
00009112  0000              add [eax],al
00009114  8CC8              mov eax,cs
00009116  66C1E004          shl ax,byte 0x4
0000911A  6601F0            add ax,si
0000911D  67894702          mov [bx+0x2],eax
00009121  66C1E810          shr ax,byte 0x10
00009125  67884704          mov [bx+0x4],al
00009129  67886707          mov [bx+0x7],ah
0000912D  6658              pop ax
0000912F  C3                ret
00009130  4B                dec ebx
00009131  65726E            gs jc 0x91a2
00009134  656C              gs insb
00009136  20446174          and [ecx+0x74],al
0000913A  61                popad
0000913B  0000              add [eax],al
0000913D  0000              add [eax],al
0000913F  0000              add [eax],al
00009141  0000              add [eax],al
00009143  0000              add [eax],al
00009145  0000              add [eax],al
00009147  0000              add [eax],al
00009149  0000              add [eax],al
0000914B  0000              add [eax],al
0000914D  0000              add [eax],al
0000914F  00FF              add bh,bh
00009151  0000              add [eax],al
00009153  0028              add [eax],ch
00009155  0000              add [eax],al
00009157  0000              add [eax],al
00009159  0000              add [eax],al
0000915B  0000              add [eax],al
0000915D  0000              add [eax],al
0000915F  0000              add [eax],al
00009161  0000              add [eax],al
00009163  0000              add [eax],al
00009165  0000              add [eax],al
00009167  0000              add [eax],al
00009169  0000              add [eax],al
0000916B  0000              add [eax],al
0000916D  0000              add [eax],al
0000916F  0000              add [eax],al
00009171  0000              add [eax],al
00009173  0000              add [eax],al
00009175  0000              add [eax],al
00009177  0000              add [eax],al
00009179  0000              add [eax],al
0000917B  0000              add [eax],al
0000917D  0000              add [eax],al
0000917F  0000              add [eax],al
00009181  0000              add [eax],al
00009183  0000              add [eax],al
00009185  0000              add [eax],al
00009187  0000              add [eax],al
00009189  0000              add [eax],al
0000918B  0000              add [eax],al
0000918D  0000              add [eax],al
0000918F  0000              add [eax],al
00009191  0000              add [eax],al
00009193  0000              add [eax],al
00009195  0000              add [eax],al
00009197  0000              add [eax],al
00009199  0000              add [eax],al
0000919B  0000              add [eax],al
0000919D  0000              add [eax],al
0000919F  0000              add [eax],al
000091A1  0000              add [eax],al
000091A3  0000              add [eax],al
000091A5  0000              add [eax],al
000091A7  0000              add [eax],al
000091A9  0000              add [eax],al
000091AB  0000              add [eax],al
000091AD  0000              add [eax],al
000091AF  0000              add [eax],al
000091B1  0000              add [eax],al
000091B3  0000              add [eax],al
000091B5  0000              add [eax],al
000091B7  0000              add [eax],al
000091B9  0000              add [eax],al
000091BB  0000              add [eax],al
000091BD  0000              add [eax],al
000091BF  0000              add [eax],al
000091C1  0000              add [eax],al
000091C3  0000              add [eax],al
000091C5  0000              add [eax],al
000091C7  0000              add [eax],al
000091C9  0000              add [eax],al
000091CB  0000              add [eax],al
000091CD  0000              add [eax],al
000091CF  0000              add [eax],al
000091D1  0000              add [eax],al
000091D3  0000              add [eax],al
000091D5  0000              add [eax],al
000091D7  0000              add [eax],al
000091D9  0000              add [eax],al
000091DB  0000              add [eax],al
000091DD  0000              add [eax],al
000091DF  0000              add [eax],al
000091E1  0000              add [eax],al
000091E3  0000              add [eax],al
000091E5  0000              add [eax],al
000091E7  0000              add [eax],al
000091E9  0000              add [eax],al
000091EB  0000              add [eax],al
000091ED  0000              add [eax],al
000091EF  0000              add [eax],al
000091F1  0000              add [eax],al
000091F3  0000              add [eax],al
000091F5  0000              add [eax],al
000091F7  0000              add [eax],al
000091F9  0000              add [eax],al
000091FB  0000              add [eax],al
000091FD  0000              add [eax],al
000091FF  0000              add [eax],al
00009201  0000              add [eax],al
00009203  0000              add [eax],al
00009205  0000              add [eax],al
00009207  0000              add [eax],al
00009209  0000              add [eax],al
0000920B  0000              add [eax],al
0000920D  0000              add [eax],al
0000920F  0000              add [eax],al
00009211  0000              add [eax],al
00009213  0000              add [eax],al
00009215  0000              add [eax],al
00009217  0000              add [eax],al
00009219  0000              add [eax],al
0000921B  0000              add [eax],al
0000921D  0000              add [eax],al
0000921F  0000              add [eax],al
00009221  0000              add [eax],al
00009223  0000              add [eax],al
00009225  0000              add [eax],al
00009227  0000              add [eax],al
00009229  0000              add [eax],al
0000922B  0000              add [eax],al
0000922D  0000              add [eax],al
0000922F  0000              add [eax],al
00009231  0000              add [eax],al
00009233  0000              add [eax],al
00009235  0000              add [eax],al
00009237  0000              add [eax],al
00009239  0000              add [eax],al
0000923B  0000              add [eax],al
0000923D  0000              add [eax],al
0000923F  0000              add [eax],al
00009241  0000              add [eax],al
00009243  0000              add [eax],al
00009245  0000              add [eax],al
00009247  0000              add [eax],al
00009249  0000              add [eax],al
0000924B  0000              add [eax],al
0000924D  0000              add [eax],al
0000924F  0000              add [eax],al
00009251  0000              add [eax],al
00009253  0000              add [eax],al
00009255  0000              add [eax],al
00009257  0000              add [eax],al
00009259  0000              add [eax],al
0000925B  0000              add [eax],al
0000925D  0000              add [eax],al
0000925F  0000              add [eax],al
00009261  0000              add [eax],al
00009263  0000              add [eax],al
00009265  0000              add [eax],al
00009267  0000              add [eax],al
00009269  0000              add [eax],al
0000926B  0000              add [eax],al
0000926D  0000              add [eax],al
0000926F  0000              add [eax],al
00009271  0000              add [eax],al
00009273  0000              add [eax],al
00009275  0000              add [eax],al
00009277  0000              add [eax],al
00009279  0000              add [eax],al
0000927B  0000              add [eax],al
0000927D  0000              add [eax],al
0000927F  0000              add [eax],al
00009281  0000              add [eax],al
00009283  0000              add [eax],al
00009285  0000              add [eax],al
00009287  0000              add [eax],al
00009289  004001            add [eax+0x1],al
0000928C  FF00              inc dword [eax]
0000928E  0000              add [eax],al
00009290  66B81300          mov ax,0x13
00009294  8EE8              mov gs,eax
00009296  66B82000          mov ax,0x20
0000929A  8EC0              mov es,eax
0000929C  66BF0000          mov di,0x0
000092A0  9A000000004B00    call dword 0x4b:0x0
000092A7  66B82000          mov ax,0x20
000092AB  8ED8              mov ds,eax
000092AD  BD00000000        mov ebp,0x0
000092B2  66BB0C00          mov bx,0xc
000092B6  B60C              mov dh,0xc
000092B8  B221              mov dl,0x21
000092BA  E802000000        call dword 0x92c1
000092BF  EBFE              jmp short 0x92bf
000092C1  55                push ebp
000092C2  50                push eax
000092C3  57                push edi
000092C4  6651              push cx
000092C6  6652              push dx
000092C8  3E8A4D00          mov cl,[ds:ebp+0x0]
000092CC  80F900            cmp cl,0x0
000092CF  741A              jz 0x92eb
000092D1  B850000000        mov eax,0x50
000092D6  F6E6              mul dh
000092D8  00D0              add al,dl
000092DA  D1E0              shl eax,1
000092DC  89C7              mov edi,eax
000092DE  88DC              mov ah,bl
000092E0  88C8              mov al,cl
000092E2  65668907          mov [gs:edi],ax
000092E6  45                inc ebp
000092E7  FEC2              inc dl
000092E9  EBDD              jmp short 0x92c8
000092EB  665A              pop dx
000092ED  6659              pop cx
000092EF  5F                pop edi
000092F0  58                pop eax
000092F1  5D                pop ebp
000092F2  C3                ret
000092F3  00668B            add [esi-0x75],ah
000092F6  4C                dec esp
000092F7  2404              and al,0x4
000092F9  6683E103          and cx,byte +0x3
000092FD  668CC0            mov ax,es
00009300  6683E0FC          and ax,byte -0x4
00009304  6609C8            or ax,cx
00009307  8EC0              mov es,eax
00009309  66B81800          mov ax,0x18
0000930D  8ED8              mov ds,eax
0000930F  66BE0000          mov si,0x0
00009313  66B90C00          mov cx,0xc
00009317  E801000000        call dword 0x931d
0000931C  CB                retf
0000931D  668CC0            mov ax,es
00009320  E83E000000        call dword 0x9363
00009325  6639FE            cmp si,di
00009328  770C              ja 0x9336
0000932A  6601CE            add si,cx
0000932D  6601CF            add di,cx
00009330  664E              dec si
00009332  664F              dec di
00009334  EB16              jmp short 0x934c
00009336  6683F900          cmp cx,byte +0x0
0000933A  7426              jz 0x9362
0000933C  3E678A04          mov al,[ds:si]
00009340  26678805          mov [es:di],al
00009344  6646              inc si
00009346  6647              inc di
00009348  6649              dec cx
0000934A  EBEA              jmp short 0x9336
0000934C  6683F900          cmp cx,byte +0x0
00009350  7410              jz 0x9362
00009352  3E678A04          mov al,[ds:si]
00009356  26678805          mov [es:di],al
0000935A  664E              dec si
0000935C  664F              dec di
0000935E  6649              dec cx
00009360  EBEA              jmp short 0x934c
00009362  C3                ret
00009363  6683E003          and ax,byte +0x3
00009367  6683F800          cmp ax,byte +0x0
0000936B  740E              jz 0x937b
0000936D  66B80000          mov ax,0x0
00009371  8EE0              mov fs,eax
00009373  64C6050000000000  mov byte [dword fs:0x0],0x0
0000937B  C3                ret
0000937C  0000              add [eax],al
0000937E  0000              add [eax],al
00009380  0000              add [eax],al
00009382  0000              add [eax],al
00009384  0000              add [eax],al
00009386  0000              add [eax],al
00009388  0000              add [eax],al
0000938A  0000              add [eax],al
0000938C  0000              add [eax],al
0000938E  0000              add [eax],al
00009390  0000              add [eax],al
00009392  0000              add [eax],al
00009394  0000              add [eax],al
00009396  0000              add [eax],al
00009398  0000              add [eax],al
0000939A  0000              add [eax],al
0000939C  0000              add [eax],al
0000939E  0000              add [eax],al
000093A0  0000              add [eax],al
000093A2  0000              add [eax],al
000093A4  0000              add [eax],al
000093A6  0000              add [eax],al
000093A8  0000              add [eax],al
000093AA  0000              add [eax],al
000093AC  0000              add [eax],al
000093AE  0000              add [eax],al
000093B0  0000              add [eax],al
000093B2  0000              add [eax],al
000093B4  0000              add [eax],al
000093B6  0000              add [eax],al
000093B8  0000              add [eax],al
000093BA  0000              add [eax],al
000093BC  0000              add [eax],al
000093BE  0000              add [eax],al
000093C0  0000              add [eax],al
000093C2  0000              add [eax],al
000093C4  0000              add [eax],al
000093C6  0000              add [eax],al
000093C8  0000              add [eax],al
000093CA  0000              add [eax],al
000093CC  0000              add [eax],al
000093CE  0000              add [eax],al
000093D0  0000              add [eax],al
000093D2  0000              add [eax],al
000093D4  0000              add [eax],al
000093D6  0000              add [eax],al
000093D8  0000              add [eax],al
000093DA  0000              add [eax],al
000093DC  0000              add [eax],al
000093DE  0000              add [eax],al
000093E0  0000              add [eax],al
000093E2  0000              add [eax],al
000093E4  0000              add [eax],al
000093E6  0000              add [eax],al
000093E8  0000              add [eax],al
000093EA  0000              add [eax],al
000093EC  0000              add [eax],al
000093EE  0000              add [eax],al
000093F0  0000              add [eax],al
000093F2  0000              add [eax],al
000093F4  0000              add [eax],al
000093F6  0000              add [eax],al
000093F8  0000              add [eax],al
000093FA  0000              add [eax],al
000093FC  0000              add [eax],al
000093FE  0000              add [eax],al
00009400  0000              add [eax],al
00009402  0000              add [eax],al
00009404  0000              add [eax],al
00009406  0000              add [eax],al
00009408  0000              add [eax],al
0000940A  0000              add [eax],al
0000940C  0000              add [eax],al
0000940E  0000              add [eax],al
00009410  0000              add [eax],al
00009412  0000              add [eax],al
00009414  0000              add [eax],al
00009416  0000              add [eax],al
00009418  0000              add [eax],al
0000941A  0000              add [eax],al
0000941C  0000              add [eax],al
0000941E  0000              add [eax],al
00009420  0000              add [eax],al
00009422  0000              add [eax],al
00009424  0000              add [eax],al
00009426  0000              add [eax],al
00009428  0000              add [eax],al
0000942A  0000              add [eax],al
0000942C  0000              add [eax],al
0000942E  0000              add [eax],al
00009430  0000              add [eax],al
00009432  0000              add [eax],al
00009434  0000              add [eax],al
00009436  0000              add [eax],al
00009438  0000              add [eax],al
0000943A  0000              add [eax],al
0000943C  0000              add [eax],al
0000943E  0000              add [eax],al
00009440  0000              add [eax],al
00009442  0000              add [eax],al
00009444  0000              add [eax],al
00009446  0000              add [eax],al
00009448  0000              add [eax],al
0000944A  0000              add [eax],al
0000944C  0000              add [eax],al
0000944E  0000              add [eax],al
00009450  0000              add [eax],al
00009452  0000              add [eax],al
00009454  0000              add [eax],al
00009456  0000              add [eax],al
00009458  0000              add [eax],al
0000945A  0000              add [eax],al
0000945C  0000              add [eax],al
0000945E  0000              add [eax],al
00009460  0000              add [eax],al
00009462  0000              add [eax],al
00009464  0000              add [eax],al
00009466  0000              add [eax],al
00009468  0000              add [eax],al
0000946A  0000              add [eax],al
0000946C  0000              add [eax],al
0000946E  0000              add [eax],al
00009470  0000              add [eax],al
00009472  0000              add [eax],al
00009474  0000              add [eax],al
00009476  0000              add [eax],al
00009478  0000              add [eax],al
0000947A  0000              add [eax],al
0000947C  0000              add [eax],al
0000947E  0000              add [eax],al
00009480  0000              add [eax],al
00009482  0000              add [eax],al
00009484  0000              add [eax],al
00009486  0000              add [eax],al
00009488  0000              add [eax],al
0000948A  0000              add [eax],al
0000948C  0000              add [eax],al
0000948E  0000              add [eax],al
00009490  0000              add [eax],al
00009492  0000              add [eax],al
00009494  0000              add [eax],al
00009496  0000              add [eax],al
00009498  0000              add [eax],al
0000949A  0000              add [eax],al
0000949C  0000              add [eax],al
0000949E  0000              add [eax],al
000094A0  0000              add [eax],al
000094A2  0000              add [eax],al
000094A4  0000              add [eax],al
000094A6  0000              add [eax],al
000094A8  0000              add [eax],al
000094AA  0000              add [eax],al
000094AC  0000              add [eax],al
000094AE  0000              add [eax],al
000094B0  0000              add [eax],al
000094B2  0000              add [eax],al
000094B4  0000              add [eax],al
000094B6  0000              add [eax],al
000094B8  0000              add [eax],al
000094BA  0000              add [eax],al
000094BC  0000              add [eax],al
000094BE  0000              add [eax],al
000094C0  0000              add [eax],al
000094C2  0000              add [eax],al
000094C4  0000              add [eax],al
000094C6  0000              add [eax],al
000094C8  0000              add [eax],al
000094CA  0000              add [eax],al
000094CC  0000              add [eax],al
000094CE  0000              add [eax],al
000094D0  0000              add [eax],al
000094D2  0000              add [eax],al
000094D4  0000              add [eax],al
000094D6  0000              add [eax],al
000094D8  0000              add [eax],al
000094DA  0000              add [eax],al
000094DC  0000              add [eax],al
000094DE  0000              add [eax],al
000094E0  0000              add [eax],al
000094E2  0000              add [eax],al
000094E4  0000              add [eax],al
000094E6  0000              add [eax],al
000094E8  0000              add [eax],al
000094EA  0000              add [eax],al
000094EC  0000              add [eax],al
000094EE  0000              add [eax],al
000094F0  0000              add [eax],al
000094F2  0000              add [eax],al
000094F4  0000              add [eax],al
000094F6  0000              add [eax],al
000094F8  0000              add [eax],al
000094FA  0000              add [eax],al
000094FC  0000              add [eax],al
000094FE  0000              add [eax],al
00009500  0000              add [eax],al
00009502  0000              add [eax],al
00009504  0000              add [eax],al
00009506  0000              add [eax],al
00009508  0000              add [eax],al
0000950A  0000              add [eax],al
0000950C  0000              add [eax],al
0000950E  0000              add [eax],al
00009510  0000              add [eax],al
00009512  0000              add [eax],al
00009514  0000              add [eax],al
00009516  0000              add [eax],al
00009518  0000              add [eax],al
0000951A  0000              add [eax],al
0000951C  0000              add [eax],al
0000951E  0000              add [eax],al
00009520  0000              add [eax],al
00009522  0000              add [eax],al
00009524  0000              add [eax],al
00009526  0000              add [eax],al
00009528  0000              add [eax],al
0000952A  0000              add [eax],al
0000952C  0000              add [eax],al
0000952E  0000              add [eax],al
00009530  0000              add [eax],al
00009532  0000              add [eax],al
00009534  0000              add [eax],al
00009536  0000              add [eax],al
00009538  0000              add [eax],al
0000953A  0000              add [eax],al
0000953C  0000              add [eax],al
0000953E  0000              add [eax],al
00009540  0000              add [eax],al
00009542  0000              add [eax],al
00009544  0000              add [eax],al
00009546  0000              add [eax],al
00009548  0000              add [eax],al
0000954A  0000              add [eax],al
0000954C  0000              add [eax],al
0000954E  0000              add [eax],al
00009550  0000              add [eax],al
00009552  0000              add [eax],al
00009554  0000              add [eax],al
00009556  0000              add [eax],al
00009558  0000              add [eax],al
0000955A  0000              add [eax],al
0000955C  0000              add [eax],al
0000955E  0000              add [eax],al
00009560  0000              add [eax],al
00009562  0000              add [eax],al
00009564  0000              add [eax],al
00009566  0000              add [eax],al
00009568  0000              add [eax],al
0000956A  0000              add [eax],al
0000956C  0000              add [eax],al
0000956E  0000              add [eax],al
00009570  0000              add [eax],al
00009572  0000              add [eax],al
00009574  0000              add [eax],al
00009576  0000              add [eax],al
00009578  0000              add [eax],al
0000957A  0000              add [eax],al
