00009000  E9BD090000        jmp dword 0x99c2
00009005  0000              add [eax],al
00009007  0000              add [eax],al
00009009  0000              add [eax],al
0000900B  0033              add [ebx],dh
0000900D  0000              add [eax],al
0000900F  0000              add [eax],al
00009011  F8                clc
00009012  40                inc eax
00009013  00FF              add bh,bh
00009015  7F00              jg 0x9017
00009017  800BF3            or byte [ebx],0xf3
0000901A  40                inc eax
0000901B  0010              add [eax],dl
0000901D  0000              add [eax],al
0000901F  0000              add [eax],al
00009021  F240              repne inc eax
00009023  00FF              add bh,bh
00009025  0F0000            sldt [eax]
00009028  00F2              add dl,dh
0000902A  40                inc eax
0000902B  00F9              add cl,bh
0000902D  0000              add [eax],al
0000902F  0000              add [eax],al
00009031  98                cwde
00009032  40                inc eax
00009033  00FF              add bh,bh
00009035  0F0000            sldt [eax]
00009038  009240004001      add [edx+0x1400040],dl
0000903E  0000              add [eax],al
00009040  008900003F00      add [ecx+0x3f0000],cl
00009046  0000              add [eax],al
00009048  0000              add [eax],al
0000904A  0000              add [eax],al
0000904C  0000              add [eax],al
0000904E  0000              add [eax],al
00009050  0000              add [eax],al
00009052  0000              add [eax],al
00009054  0000              add [eax],al
00009056  0000              add [eax],al
00009058  0000              add [eax],al
0000905A  0000              add [eax],al
0000905C  0000              add [eax],al
0000905E  0000              add [eax],al
00009060  0C00              or al,0x0
00009062  2800              sub [eax],al
00009064  00EE              add dh,ch
00009066  0000              add [eax],al
00009068  0C00              or al,0x0
0000906A  2800              sub [eax],al
0000906C  00EE              add dh,ch
0000906E  0000              add [eax],al
00009070  0C00              or al,0x0
00009072  2800              sub [eax],al
00009074  00EE              add dh,ch
00009076  0000              add [eax],al
00009078  0C00              or al,0x0
0000907A  2800              sub [eax],al
0000907C  00EE              add dh,ch
0000907E  0000              add [eax],al
00009080  0C00              or al,0x0
00009082  2800              sub [eax],al
00009084  00EE              add dh,ch
00009086  0000              add [eax],al
00009088  0C00              or al,0x0
0000908A  2800              sub [eax],al
0000908C  00EE              add dh,ch
0000908E  0000              add [eax],al
00009090  0C00              or al,0x0
00009092  2800              sub [eax],al
00009094  00EE              add dh,ch
00009096  0000              add [eax],al
00009098  0C00              or al,0x0
0000909A  2800              sub [eax],al
0000909C  00EE              add dh,ch
0000909E  0000              add [eax],al
000090A0  0C00              or al,0x0
000090A2  2800              sub [eax],al
000090A4  00EE              add dh,ch
000090A6  0000              add [eax],al
000090A8  0C00              or al,0x0
000090AA  2800              sub [eax],al
000090AC  00EE              add dh,ch
000090AE  0000              add [eax],al
000090B0  0C00              or al,0x0
000090B2  2800              sub [eax],al
000090B4  00EE              add dh,ch
000090B6  0000              add [eax],al
000090B8  0C00              or al,0x0
000090BA  2800              sub [eax],al
000090BC  00EE              add dh,ch
000090BE  0000              add [eax],al
000090C0  0C00              or al,0x0
000090C2  2800              sub [eax],al
000090C4  00EE              add dh,ch
000090C6  0000              add [eax],al
000090C8  0C00              or al,0x0
000090CA  2800              sub [eax],al
000090CC  00EE              add dh,ch
000090CE  0000              add [eax],al
000090D0  0C00              or al,0x0
000090D2  2800              sub [eax],al
000090D4  00EE              add dh,ch
000090D6  0000              add [eax],al
000090D8  0C00              or al,0x0
000090DA  2800              sub [eax],al
000090DC  00EE              add dh,ch
000090DE  0000              add [eax],al
000090E0  0C00              or al,0x0
000090E2  2800              sub [eax],al
000090E4  00EE              add dh,ch
000090E6  0000              add [eax],al
000090E8  0C00              or al,0x0
000090EA  2800              sub [eax],al
000090EC  00EE              add dh,ch
000090EE  0000              add [eax],al
000090F0  0C00              or al,0x0
000090F2  2800              sub [eax],al
000090F4  00EE              add dh,ch
000090F6  0000              add [eax],al
000090F8  0C00              or al,0x0
000090FA  2800              sub [eax],al
000090FC  00EE              add dh,ch
000090FE  0000              add [eax],al
00009100  0C00              or al,0x0
00009102  2800              sub [eax],al
00009104  00EE              add dh,ch
00009106  0000              add [eax],al
00009108  0C00              or al,0x0
0000910A  2800              sub [eax],al
0000910C  00EE              add dh,ch
0000910E  0000              add [eax],al
00009110  0C00              or al,0x0
00009112  2800              sub [eax],al
00009114  00EE              add dh,ch
00009116  0000              add [eax],al
00009118  0C00              or al,0x0
0000911A  2800              sub [eax],al
0000911C  00EE              add dh,ch
0000911E  0000              add [eax],al
00009120  0C00              or al,0x0
00009122  2800              sub [eax],al
00009124  00EE              add dh,ch
00009126  0000              add [eax],al
00009128  0C00              or al,0x0
0000912A  2800              sub [eax],al
0000912C  00EE              add dh,ch
0000912E  0000              add [eax],al
00009130  0C00              or al,0x0
00009132  2800              sub [eax],al
00009134  00EE              add dh,ch
00009136  0000              add [eax],al
00009138  0C00              or al,0x0
0000913A  2800              sub [eax],al
0000913C  00EE              add dh,ch
0000913E  0000              add [eax],al
00009140  0C00              or al,0x0
00009142  2800              sub [eax],al
00009144  00EE              add dh,ch
00009146  0000              add [eax],al
00009148  0C00              or al,0x0
0000914A  2800              sub [eax],al
0000914C  00EE              add dh,ch
0000914E  0000              add [eax],al
00009150  0C00              or al,0x0
00009152  2800              sub [eax],al
00009154  00EE              add dh,ch
00009156  0000              add [eax],al
00009158  0C00              or al,0x0
0000915A  2800              sub [eax],al
0000915C  00EE              add dh,ch
0000915E  0000              add [eax],al
00009160  3300              xor eax,[eax]
00009162  2800              sub [eax],al
00009164  00EE              add dh,ch
00009166  0000              add [eax],al
00009168  0C00              or al,0x0
0000916A  2800              sub [eax],al
0000916C  00EE              add dh,ch
0000916E  0000              add [eax],al
00009170  0C00              or al,0x0
00009172  2800              sub [eax],al
00009174  00EE              add dh,ch
00009176  0000              add [eax],al
00009178  0C00              or al,0x0
0000917A  2800              sub [eax],al
0000917C  00EE              add dh,ch
0000917E  0000              add [eax],al
00009180  0C00              or al,0x0
00009182  2800              sub [eax],al
00009184  00EE              add dh,ch
00009186  0000              add [eax],al
00009188  0C00              or al,0x0
0000918A  2800              sub [eax],al
0000918C  00EE              add dh,ch
0000918E  0000              add [eax],al
00009190  0C00              or al,0x0
00009192  2800              sub [eax],al
00009194  00EE              add dh,ch
00009196  0000              add [eax],al
00009198  0C00              or al,0x0
0000919A  2800              sub [eax],al
0000919C  00EE              add dh,ch
0000919E  0000              add [eax],al
000091A0  0C00              or al,0x0
000091A2  2800              sub [eax],al
000091A4  00EE              add dh,ch
000091A6  0000              add [eax],al
000091A8  0C00              or al,0x0
000091AA  2800              sub [eax],al
000091AC  00EE              add dh,ch
000091AE  0000              add [eax],al
000091B0  0C00              or al,0x0
000091B2  2800              sub [eax],al
000091B4  00EE              add dh,ch
000091B6  0000              add [eax],al
000091B8  0C00              or al,0x0
000091BA  2800              sub [eax],al
000091BC  00EE              add dh,ch
000091BE  0000              add [eax],al
000091C0  0C00              or al,0x0
000091C2  2800              sub [eax],al
000091C4  00EE              add dh,ch
000091C6  0000              add [eax],al
000091C8  0C00              or al,0x0
000091CA  2800              sub [eax],al
000091CC  00EE              add dh,ch
000091CE  0000              add [eax],al
000091D0  0C00              or al,0x0
000091D2  2800              sub [eax],al
000091D4  00EE              add dh,ch
000091D6  0000              add [eax],al
000091D8  0C00              or al,0x0
000091DA  2800              sub [eax],al
000091DC  00EE              add dh,ch
000091DE  0000              add [eax],al
000091E0  0C00              or al,0x0
000091E2  2800              sub [eax],al
000091E4  00EE              add dh,ch
000091E6  0000              add [eax],al
000091E8  0C00              or al,0x0
000091EA  2800              sub [eax],al
000091EC  00EE              add dh,ch
000091EE  0000              add [eax],al
000091F0  0C00              or al,0x0
000091F2  2800              sub [eax],al
000091F4  00EE              add dh,ch
000091F6  0000              add [eax],al
000091F8  0C00              or al,0x0
000091FA  2800              sub [eax],al
000091FC  00EE              add dh,ch
000091FE  0000              add [eax],al
00009200  0C00              or al,0x0
00009202  2800              sub [eax],al
00009204  00EE              add dh,ch
00009206  0000              add [eax],al
00009208  0C00              or al,0x0
0000920A  2800              sub [eax],al
0000920C  00EE              add dh,ch
0000920E  0000              add [eax],al
00009210  0C00              or al,0x0
00009212  2800              sub [eax],al
00009214  00EE              add dh,ch
00009216  0000              add [eax],al
00009218  0C00              or al,0x0
0000921A  2800              sub [eax],al
0000921C  00EE              add dh,ch
0000921E  0000              add [eax],al
00009220  0C00              or al,0x0
00009222  2800              sub [eax],al
00009224  00EE              add dh,ch
00009226  0000              add [eax],al
00009228  0C00              or al,0x0
0000922A  2800              sub [eax],al
0000922C  00EE              add dh,ch
0000922E  0000              add [eax],al
00009230  0C00              or al,0x0
00009232  2800              sub [eax],al
00009234  00EE              add dh,ch
00009236  0000              add [eax],al
00009238  0C00              or al,0x0
0000923A  2800              sub [eax],al
0000923C  00EE              add dh,ch
0000923E  0000              add [eax],al
00009240  0C00              or al,0x0
00009242  2800              sub [eax],al
00009244  00EE              add dh,ch
00009246  0000              add [eax],al
00009248  0C00              or al,0x0
0000924A  2800              sub [eax],al
0000924C  00EE              add dh,ch
0000924E  0000              add [eax],al
00009250  0C00              or al,0x0
00009252  2800              sub [eax],al
00009254  00EE              add dh,ch
00009256  0000              add [eax],al
00009258  0C00              or al,0x0
0000925A  2800              sub [eax],al
0000925C  00EE              add dh,ch
0000925E  0000              add [eax],al
00009260  0C00              or al,0x0
00009262  2800              sub [eax],al
00009264  00EE              add dh,ch
00009266  0000              add [eax],al
00009268  0C00              or al,0x0
0000926A  2800              sub [eax],al
0000926C  00EE              add dh,ch
0000926E  0000              add [eax],al
00009270  0C00              or al,0x0
00009272  2800              sub [eax],al
00009274  00EE              add dh,ch
00009276  0000              add [eax],al
00009278  0C00              or al,0x0
0000927A  2800              sub [eax],al
0000927C  00EE              add dh,ch
0000927E  0000              add [eax],al
00009280  0C00              or al,0x0
00009282  2800              sub [eax],al
00009284  00EE              add dh,ch
00009286  0000              add [eax],al
00009288  0C00              or al,0x0
0000928A  2800              sub [eax],al
0000928C  00EE              add dh,ch
0000928E  0000              add [eax],al
00009290  0C00              or al,0x0
00009292  2800              sub [eax],al
00009294  00EE              add dh,ch
00009296  0000              add [eax],al
00009298  0C00              or al,0x0
0000929A  2800              sub [eax],al
0000929C  00EE              add dh,ch
0000929E  0000              add [eax],al
000092A0  0C00              or al,0x0
000092A2  2800              sub [eax],al
000092A4  00EE              add dh,ch
000092A6  0000              add [eax],al
000092A8  0C00              or al,0x0
000092AA  2800              sub [eax],al
000092AC  00EE              add dh,ch
000092AE  0000              add [eax],al
000092B0  0C00              or al,0x0
000092B2  2800              sub [eax],al
000092B4  00EE              add dh,ch
000092B6  0000              add [eax],al
000092B8  0C00              or al,0x0
000092BA  2800              sub [eax],al
000092BC  00EE              add dh,ch
000092BE  0000              add [eax],al
000092C0  0C00              or al,0x0
000092C2  2800              sub [eax],al
000092C4  00EE              add dh,ch
000092C6  0000              add [eax],al
000092C8  0C00              or al,0x0
000092CA  2800              sub [eax],al
000092CC  00EE              add dh,ch
000092CE  0000              add [eax],al
000092D0  0C00              or al,0x0
000092D2  2800              sub [eax],al
000092D4  00EE              add dh,ch
000092D6  0000              add [eax],al
000092D8  0C00              or al,0x0
000092DA  2800              sub [eax],al
000092DC  00EE              add dh,ch
000092DE  0000              add [eax],al
000092E0  0C00              or al,0x0
000092E2  2800              sub [eax],al
000092E4  00EE              add dh,ch
000092E6  0000              add [eax],al
000092E8  0C00              or al,0x0
000092EA  2800              sub [eax],al
000092EC  00EE              add dh,ch
000092EE  0000              add [eax],al
000092F0  0C00              or al,0x0
000092F2  2800              sub [eax],al
000092F4  00EE              add dh,ch
000092F6  0000              add [eax],al
000092F8  0C00              or al,0x0
000092FA  2800              sub [eax],al
000092FC  00EE              add dh,ch
000092FE  0000              add [eax],al
00009300  0C00              or al,0x0
00009302  2800              sub [eax],al
00009304  00EE              add dh,ch
00009306  0000              add [eax],al
00009308  0C00              or al,0x0
0000930A  2800              sub [eax],al
0000930C  00EE              add dh,ch
0000930E  0000              add [eax],al
00009310  0C00              or al,0x0
00009312  2800              sub [eax],al
00009314  00EE              add dh,ch
00009316  0000              add [eax],al
00009318  0C00              or al,0x0
0000931A  2800              sub [eax],al
0000931C  00EE              add dh,ch
0000931E  0000              add [eax],al
00009320  0C00              or al,0x0
00009322  2800              sub [eax],al
00009324  00EE              add dh,ch
00009326  0000              add [eax],al
00009328  0C00              or al,0x0
0000932A  2800              sub [eax],al
0000932C  00EE              add dh,ch
0000932E  0000              add [eax],al
00009330  0C00              or al,0x0
00009332  2800              sub [eax],al
00009334  00EE              add dh,ch
00009336  0000              add [eax],al
00009338  0C00              or al,0x0
0000933A  2800              sub [eax],al
0000933C  00EE              add dh,ch
0000933E  0000              add [eax],al
00009340  0C00              or al,0x0
00009342  2800              sub [eax],al
00009344  00EE              add dh,ch
00009346  0000              add [eax],al
00009348  0C00              or al,0x0
0000934A  2800              sub [eax],al
0000934C  00EE              add dh,ch
0000934E  0000              add [eax],al
00009350  0C00              or al,0x0
00009352  2800              sub [eax],al
00009354  00EE              add dh,ch
00009356  0000              add [eax],al
00009358  0C00              or al,0x0
0000935A  2800              sub [eax],al
0000935C  00EE              add dh,ch
0000935E  0000              add [eax],al
00009360  0C00              or al,0x0
00009362  2800              sub [eax],al
00009364  00EE              add dh,ch
00009366  0000              add [eax],al
00009368  0C00              or al,0x0
0000936A  2800              sub [eax],al
0000936C  00EE              add dh,ch
0000936E  0000              add [eax],al
00009370  0C00              or al,0x0
00009372  2800              sub [eax],al
00009374  00EE              add dh,ch
00009376  0000              add [eax],al
00009378  0C00              or al,0x0
0000937A  2800              sub [eax],al
0000937C  00EE              add dh,ch
0000937E  0000              add [eax],al
00009380  0C00              or al,0x0
00009382  2800              sub [eax],al
00009384  00EE              add dh,ch
00009386  0000              add [eax],al
00009388  0C00              or al,0x0
0000938A  2800              sub [eax],al
0000938C  00EE              add dh,ch
0000938E  0000              add [eax],al
00009390  0C00              or al,0x0
00009392  2800              sub [eax],al
00009394  00EE              add dh,ch
00009396  0000              add [eax],al
00009398  0C00              or al,0x0
0000939A  2800              sub [eax],al
0000939C  00EE              add dh,ch
0000939E  0000              add [eax],al
000093A0  0C00              or al,0x0
000093A2  2800              sub [eax],al
000093A4  00EE              add dh,ch
000093A6  0000              add [eax],al
000093A8  0C00              or al,0x0
000093AA  2800              sub [eax],al
000093AC  00EE              add dh,ch
000093AE  0000              add [eax],al
000093B0  0C00              or al,0x0
000093B2  2800              sub [eax],al
000093B4  00EE              add dh,ch
000093B6  0000              add [eax],al
000093B8  0C00              or al,0x0
000093BA  2800              sub [eax],al
000093BC  00EE              add dh,ch
000093BE  0000              add [eax],al
000093C0  0C00              or al,0x0
000093C2  2800              sub [eax],al
000093C4  00EE              add dh,ch
000093C6  0000              add [eax],al
000093C8  0C00              or al,0x0
000093CA  2800              sub [eax],al
000093CC  00EE              add dh,ch
000093CE  0000              add [eax],al
000093D0  0C00              or al,0x0
000093D2  2800              sub [eax],al
000093D4  00EE              add dh,ch
000093D6  0000              add [eax],al
000093D8  0C00              or al,0x0
000093DA  2800              sub [eax],al
000093DC  00EE              add dh,ch
000093DE  0000              add [eax],al
000093E0  0C00              or al,0x0
000093E2  2800              sub [eax],al
000093E4  00EE              add dh,ch
000093E6  0000              add [eax],al
000093E8  0C00              or al,0x0
000093EA  2800              sub [eax],al
000093EC  00EE              add dh,ch
000093EE  0000              add [eax],al
000093F0  0C00              or al,0x0
000093F2  2800              sub [eax],al
000093F4  00EE              add dh,ch
000093F6  0000              add [eax],al
000093F8  0C00              or al,0x0
000093FA  2800              sub [eax],al
000093FC  00EE              add dh,ch
000093FE  0000              add [eax],al
00009400  0C00              or al,0x0
00009402  2800              sub [eax],al
00009404  00EE              add dh,ch
00009406  0000              add [eax],al
00009408  0C00              or al,0x0
0000940A  2800              sub [eax],al
0000940C  00EE              add dh,ch
0000940E  0000              add [eax],al
00009410  0C00              or al,0x0
00009412  2800              sub [eax],al
00009414  00EE              add dh,ch
00009416  0000              add [eax],al
00009418  0C00              or al,0x0
0000941A  2800              sub [eax],al
0000941C  00EE              add dh,ch
0000941E  0000              add [eax],al
00009420  0C00              or al,0x0
00009422  2800              sub [eax],al
00009424  00EE              add dh,ch
00009426  0000              add [eax],al
00009428  0C00              or al,0x0
0000942A  2800              sub [eax],al
0000942C  00EE              add dh,ch
0000942E  0000              add [eax],al
00009430  0C00              or al,0x0
00009432  2800              sub [eax],al
00009434  00EE              add dh,ch
00009436  0000              add [eax],al
00009438  0C00              or al,0x0
0000943A  2800              sub [eax],al
0000943C  00EE              add dh,ch
0000943E  0000              add [eax],al
00009440  0C00              or al,0x0
00009442  2800              sub [eax],al
00009444  00EE              add dh,ch
00009446  0000              add [eax],al
00009448  0C00              or al,0x0
0000944A  2800              sub [eax],al
0000944C  00EE              add dh,ch
0000944E  0000              add [eax],al
00009450  0C00              or al,0x0
00009452  2800              sub [eax],al
00009454  00EE              add dh,ch
00009456  0000              add [eax],al
00009458  0C00              or al,0x0
0000945A  2800              sub [eax],al
0000945C  00EE              add dh,ch
0000945E  0000              add [eax],al
00009460  0000              add [eax],al
00009462  2800              sub [eax],al
00009464  00EE              add dh,ch
00009466  0000              add [eax],al
00009468  0C00              or al,0x0
0000946A  2800              sub [eax],al
0000946C  00EE              add dh,ch
0000946E  0000              add [eax],al
00009470  0C00              or al,0x0
00009472  2800              sub [eax],al
00009474  00EE              add dh,ch
00009476  0000              add [eax],al
00009478  0C00              or al,0x0
0000947A  2800              sub [eax],al
0000947C  00EE              add dh,ch
0000947E  0000              add [eax],al
00009480  0C00              or al,0x0
00009482  2800              sub [eax],al
00009484  00EE              add dh,ch
00009486  0000              add [eax],al
00009488  0C00              or al,0x0
0000948A  2800              sub [eax],al
0000948C  00EE              add dh,ch
0000948E  0000              add [eax],al
00009490  0C00              or al,0x0
00009492  2800              sub [eax],al
00009494  00EE              add dh,ch
00009496  0000              add [eax],al
00009498  0C00              or al,0x0
0000949A  2800              sub [eax],al
0000949C  00EE              add dh,ch
0000949E  0000              add [eax],al
000094A0  0C00              or al,0x0
000094A2  2800              sub [eax],al
000094A4  00EE              add dh,ch
000094A6  0000              add [eax],al
000094A8  0C00              or al,0x0
000094AA  2800              sub [eax],al
000094AC  00EE              add dh,ch
000094AE  0000              add [eax],al
000094B0  0C00              or al,0x0
000094B2  2800              sub [eax],al
000094B4  00EE              add dh,ch
000094B6  0000              add [eax],al
000094B8  0C00              or al,0x0
000094BA  2800              sub [eax],al
000094BC  00EE              add dh,ch
000094BE  0000              add [eax],al
000094C0  0C00              or al,0x0
000094C2  2800              sub [eax],al
000094C4  00EE              add dh,ch
000094C6  0000              add [eax],al
000094C8  0C00              or al,0x0
000094CA  2800              sub [eax],al
000094CC  00EE              add dh,ch
000094CE  0000              add [eax],al
000094D0  0C00              or al,0x0
000094D2  2800              sub [eax],al
000094D4  00EE              add dh,ch
000094D6  0000              add [eax],al
000094D8  0C00              or al,0x0
000094DA  2800              sub [eax],al
000094DC  00EE              add dh,ch
000094DE  0000              add [eax],al
000094E0  0C00              or al,0x0
000094E2  2800              sub [eax],al
000094E4  00EE              add dh,ch
000094E6  0000              add [eax],al
000094E8  0C00              or al,0x0
000094EA  2800              sub [eax],al
000094EC  00EE              add dh,ch
000094EE  0000              add [eax],al
000094F0  0C00              or al,0x0
000094F2  2800              sub [eax],al
000094F4  00EE              add dh,ch
000094F6  0000              add [eax],al
000094F8  0C00              or al,0x0
000094FA  2800              sub [eax],al
000094FC  00EE              add dh,ch
000094FE  0000              add [eax],al
00009500  0C00              or al,0x0
00009502  2800              sub [eax],al
00009504  00EE              add dh,ch
00009506  0000              add [eax],al
00009508  0C00              or al,0x0
0000950A  2800              sub [eax],al
0000950C  00EE              add dh,ch
0000950E  0000              add [eax],al
00009510  0C00              or al,0x0
00009512  2800              sub [eax],al
00009514  00EE              add dh,ch
00009516  0000              add [eax],al
00009518  0C00              or al,0x0
0000951A  2800              sub [eax],al
0000951C  00EE              add dh,ch
0000951E  0000              add [eax],al
00009520  0C00              or al,0x0
00009522  2800              sub [eax],al
00009524  00EE              add dh,ch
00009526  0000              add [eax],al
00009528  0C00              or al,0x0
0000952A  2800              sub [eax],al
0000952C  00EE              add dh,ch
0000952E  0000              add [eax],al
00009530  0C00              or al,0x0
00009532  2800              sub [eax],al
00009534  00EE              add dh,ch
00009536  0000              add [eax],al
00009538  0C00              or al,0x0
0000953A  2800              sub [eax],al
0000953C  00EE              add dh,ch
0000953E  0000              add [eax],al
00009540  0C00              or al,0x0
00009542  2800              sub [eax],al
00009544  00EE              add dh,ch
00009546  0000              add [eax],al
00009548  0C00              or al,0x0
0000954A  2800              sub [eax],al
0000954C  00EE              add dh,ch
0000954E  0000              add [eax],al
00009550  0C00              or al,0x0
00009552  2800              sub [eax],al
00009554  00EE              add dh,ch
00009556  0000              add [eax],al
00009558  0C00              or al,0x0
0000955A  2800              sub [eax],al
0000955C  00EE              add dh,ch
0000955E  0000              add [eax],al
00009560  0C00              or al,0x0
00009562  2800              sub [eax],al
00009564  00EE              add dh,ch
00009566  0000              add [eax],al
00009568  0C00              or al,0x0
0000956A  2800              sub [eax],al
0000956C  00EE              add dh,ch
0000956E  0000              add [eax],al
00009570  0C00              or al,0x0
00009572  2800              sub [eax],al
00009574  00EE              add dh,ch
00009576  0000              add [eax],al
00009578  0C00              or al,0x0
0000957A  2800              sub [eax],al
0000957C  00EE              add dh,ch
0000957E  0000              add [eax],al
00009580  0C00              or al,0x0
00009582  2800              sub [eax],al
00009584  00EE              add dh,ch
00009586  0000              add [eax],al
00009588  0C00              or al,0x0
0000958A  2800              sub [eax],al
0000958C  00EE              add dh,ch
0000958E  0000              add [eax],al
00009590  0C00              or al,0x0
00009592  2800              sub [eax],al
00009594  00EE              add dh,ch
00009596  0000              add [eax],al
00009598  0C00              or al,0x0
0000959A  2800              sub [eax],al
0000959C  00EE              add dh,ch
0000959E  0000              add [eax],al
000095A0  0C00              or al,0x0
000095A2  2800              sub [eax],al
000095A4  00EE              add dh,ch
000095A6  0000              add [eax],al
000095A8  0C00              or al,0x0
000095AA  2800              sub [eax],al
000095AC  00EE              add dh,ch
000095AE  0000              add [eax],al
000095B0  0C00              or al,0x0
000095B2  2800              sub [eax],al
000095B4  00EE              add dh,ch
000095B6  0000              add [eax],al
000095B8  0C00              or al,0x0
000095BA  2800              sub [eax],al
000095BC  00EE              add dh,ch
000095BE  0000              add [eax],al
000095C0  0C00              or al,0x0
000095C2  2800              sub [eax],al
000095C4  00EE              add dh,ch
000095C6  0000              add [eax],al
000095C8  0C00              or al,0x0
000095CA  2800              sub [eax],al
000095CC  00EE              add dh,ch
000095CE  0000              add [eax],al
000095D0  0C00              or al,0x0
000095D2  2800              sub [eax],al
000095D4  00EE              add dh,ch
000095D6  0000              add [eax],al
000095D8  0C00              or al,0x0
000095DA  2800              sub [eax],al
000095DC  00EE              add dh,ch
000095DE  0000              add [eax],al
000095E0  0C00              or al,0x0
000095E2  2800              sub [eax],al
000095E4  00EE              add dh,ch
000095E6  0000              add [eax],al
000095E8  0C00              or al,0x0
000095EA  2800              sub [eax],al
000095EC  00EE              add dh,ch
000095EE  0000              add [eax],al
000095F0  0C00              or al,0x0
000095F2  2800              sub [eax],al
000095F4  00EE              add dh,ch
000095F6  0000              add [eax],al
000095F8  0C00              or al,0x0
000095FA  2800              sub [eax],al
000095FC  00EE              add dh,ch
000095FE  0000              add [eax],al
00009600  0C00              or al,0x0
00009602  2800              sub [eax],al
00009604  00EE              add dh,ch
00009606  0000              add [eax],al
00009608  0C00              or al,0x0
0000960A  2800              sub [eax],al
0000960C  00EE              add dh,ch
0000960E  0000              add [eax],al
00009610  0C00              or al,0x0
00009612  2800              sub [eax],al
00009614  00EE              add dh,ch
00009616  0000              add [eax],al
00009618  0C00              or al,0x0
0000961A  2800              sub [eax],al
0000961C  00EE              add dh,ch
0000961E  0000              add [eax],al
00009620  0C00              or al,0x0
00009622  2800              sub [eax],al
00009624  00EE              add dh,ch
00009626  0000              add [eax],al
00009628  0C00              or al,0x0
0000962A  2800              sub [eax],al
0000962C  00EE              add dh,ch
0000962E  0000              add [eax],al
00009630  0C00              or al,0x0
00009632  2800              sub [eax],al
00009634  00EE              add dh,ch
00009636  0000              add [eax],al
00009638  0C00              or al,0x0
0000963A  2800              sub [eax],al
0000963C  00EE              add dh,ch
0000963E  0000              add [eax],al
00009640  0C00              or al,0x0
00009642  2800              sub [eax],al
00009644  00EE              add dh,ch
00009646  0000              add [eax],al
00009648  0C00              or al,0x0
0000964A  2800              sub [eax],al
0000964C  00EE              add dh,ch
0000964E  0000              add [eax],al
00009650  0C00              or al,0x0
00009652  2800              sub [eax],al
00009654  00EE              add dh,ch
00009656  0000              add [eax],al
00009658  0C00              or al,0x0
0000965A  2800              sub [eax],al
0000965C  00EE              add dh,ch
0000965E  0000              add [eax],al
00009660  0C00              or al,0x0
00009662  2800              sub [eax],al
00009664  00EE              add dh,ch
00009666  0000              add [eax],al
00009668  0C00              or al,0x0
0000966A  2800              sub [eax],al
0000966C  00EE              add dh,ch
0000966E  0000              add [eax],al
00009670  0C00              or al,0x0
00009672  2800              sub [eax],al
00009674  00EE              add dh,ch
00009676  0000              add [eax],al
00009678  0C00              or al,0x0
0000967A  2800              sub [eax],al
0000967C  00EE              add dh,ch
0000967E  0000              add [eax],al
00009680  0C00              or al,0x0
00009682  2800              sub [eax],al
00009684  00EE              add dh,ch
00009686  0000              add [eax],al
00009688  0C00              or al,0x0
0000968A  2800              sub [eax],al
0000968C  00EE              add dh,ch
0000968E  0000              add [eax],al
00009690  0C00              or al,0x0
00009692  2800              sub [eax],al
00009694  00EE              add dh,ch
00009696  0000              add [eax],al
00009698  0C00              or al,0x0
0000969A  2800              sub [eax],al
0000969C  00EE              add dh,ch
0000969E  0000              add [eax],al
000096A0  0C00              or al,0x0
000096A2  2800              sub [eax],al
000096A4  00EE              add dh,ch
000096A6  0000              add [eax],al
000096A8  0C00              or al,0x0
000096AA  2800              sub [eax],al
000096AC  00EE              add dh,ch
000096AE  0000              add [eax],al
000096B0  0C00              or al,0x0
000096B2  2800              sub [eax],al
000096B4  00EE              add dh,ch
000096B6  0000              add [eax],al
000096B8  0C00              or al,0x0
000096BA  2800              sub [eax],al
000096BC  00EE              add dh,ch
000096BE  0000              add [eax],al
000096C0  0C00              or al,0x0
000096C2  2800              sub [eax],al
000096C4  00EE              add dh,ch
000096C6  0000              add [eax],al
000096C8  0C00              or al,0x0
000096CA  2800              sub [eax],al
000096CC  00EE              add dh,ch
000096CE  0000              add [eax],al
000096D0  0C00              or al,0x0
000096D2  2800              sub [eax],al
000096D4  00EE              add dh,ch
000096D6  0000              add [eax],al
000096D8  0C00              or al,0x0
000096DA  2800              sub [eax],al
000096DC  00EE              add dh,ch
000096DE  0000              add [eax],al
000096E0  0C00              or al,0x0
000096E2  2800              sub [eax],al
000096E4  00EE              add dh,ch
000096E6  0000              add [eax],al
000096E8  0C00              or al,0x0
000096EA  2800              sub [eax],al
000096EC  00EE              add dh,ch
000096EE  0000              add [eax],al
000096F0  0C00              or al,0x0
000096F2  2800              sub [eax],al
000096F4  00EE              add dh,ch
000096F6  0000              add [eax],al
000096F8  0C00              or al,0x0
000096FA  2800              sub [eax],al
000096FC  00EE              add dh,ch
000096FE  0000              add [eax],al
00009700  0C00              or al,0x0
00009702  2800              sub [eax],al
00009704  00EE              add dh,ch
00009706  0000              add [eax],al
00009708  0C00              or al,0x0
0000970A  2800              sub [eax],al
0000970C  00EE              add dh,ch
0000970E  0000              add [eax],al
00009710  0C00              or al,0x0
00009712  2800              sub [eax],al
00009714  00EE              add dh,ch
00009716  0000              add [eax],al
00009718  0C00              or al,0x0
0000971A  2800              sub [eax],al
0000971C  00EE              add dh,ch
0000971E  0000              add [eax],al
00009720  0C00              or al,0x0
00009722  2800              sub [eax],al
00009724  00EE              add dh,ch
00009726  0000              add [eax],al
00009728  0C00              or al,0x0
0000972A  2800              sub [eax],al
0000972C  00EE              add dh,ch
0000972E  0000              add [eax],al
00009730  0C00              or al,0x0
00009732  2800              sub [eax],al
00009734  00EE              add dh,ch
00009736  0000              add [eax],al
00009738  0C00              or al,0x0
0000973A  2800              sub [eax],al
0000973C  00EE              add dh,ch
0000973E  0000              add [eax],al
00009740  0C00              or al,0x0
00009742  2800              sub [eax],al
00009744  00EE              add dh,ch
00009746  0000              add [eax],al
00009748  0C00              or al,0x0
0000974A  2800              sub [eax],al
0000974C  00EE              add dh,ch
0000974E  0000              add [eax],al
00009750  0C00              or al,0x0
00009752  2800              sub [eax],al
00009754  00EE              add dh,ch
00009756  0000              add [eax],al
00009758  0C00              or al,0x0
0000975A  2800              sub [eax],al
0000975C  00EE              add dh,ch
0000975E  0000              add [eax],al
00009760  0C00              or al,0x0
00009762  2800              sub [eax],al
00009764  00EE              add dh,ch
00009766  0000              add [eax],al
00009768  0C00              or al,0x0
0000976A  2800              sub [eax],al
0000976C  00EE              add dh,ch
0000976E  0000              add [eax],al
00009770  0C00              or al,0x0
00009772  2800              sub [eax],al
00009774  00EE              add dh,ch
00009776  0000              add [eax],al
00009778  0C00              or al,0x0
0000977A  2800              sub [eax],al
0000977C  00EE              add dh,ch
0000977E  0000              add [eax],al
00009780  0C00              or al,0x0
00009782  2800              sub [eax],al
00009784  00EE              add dh,ch
00009786  0000              add [eax],al
00009788  0C00              or al,0x0
0000978A  2800              sub [eax],al
0000978C  00EE              add dh,ch
0000978E  0000              add [eax],al
00009790  0C00              or al,0x0
00009792  2800              sub [eax],al
00009794  00EE              add dh,ch
00009796  0000              add [eax],al
00009798  0C00              or al,0x0
0000979A  2800              sub [eax],al
0000979C  00EE              add dh,ch
0000979E  0000              add [eax],al
000097A0  0C00              or al,0x0
000097A2  2800              sub [eax],al
000097A4  00EE              add dh,ch
000097A6  0000              add [eax],al
000097A8  0C00              or al,0x0
000097AA  2800              sub [eax],al
000097AC  00EE              add dh,ch
000097AE  0000              add [eax],al
000097B0  0C00              or al,0x0
000097B2  2800              sub [eax],al
000097B4  00EE              add dh,ch
000097B6  0000              add [eax],al
000097B8  0C00              or al,0x0
000097BA  2800              sub [eax],al
000097BC  00EE              add dh,ch
000097BE  0000              add [eax],al
000097C0  0C00              or al,0x0
000097C2  2800              sub [eax],al
000097C4  00EE              add dh,ch
000097C6  0000              add [eax],al
000097C8  0C00              or al,0x0
000097CA  2800              sub [eax],al
000097CC  00EE              add dh,ch
000097CE  0000              add [eax],al
000097D0  0C00              or al,0x0
000097D2  2800              sub [eax],al
000097D4  00EE              add dh,ch
000097D6  0000              add [eax],al
000097D8  0C00              or al,0x0
000097DA  2800              sub [eax],al
000097DC  00EE              add dh,ch
000097DE  0000              add [eax],al
000097E0  0C00              or al,0x0
000097E2  2800              sub [eax],al
000097E4  00EE              add dh,ch
000097E6  0000              add [eax],al
000097E8  0C00              or al,0x0
000097EA  2800              sub [eax],al
000097EC  00EE              add dh,ch
000097EE  0000              add [eax],al
000097F0  0C00              or al,0x0
000097F2  2800              sub [eax],al
000097F4  00EE              add dh,ch
000097F6  0000              add [eax],al
000097F8  0C00              or al,0x0
000097FA  2800              sub [eax],al
000097FC  00EE              add dh,ch
000097FE  0000              add [eax],al
00009800  0C00              or al,0x0
00009802  2800              sub [eax],al
00009804  00EE              add dh,ch
00009806  0000              add [eax],al
00009808  0C00              or al,0x0
0000980A  2800              sub [eax],al
0000980C  00EE              add dh,ch
0000980E  0000              add [eax],al
00009810  0C00              or al,0x0
00009812  2800              sub [eax],al
00009814  00EE              add dh,ch
00009816  0000              add [eax],al
00009818  0C00              or al,0x0
0000981A  2800              sub [eax],al
0000981C  00EE              add dh,ch
0000981E  0000              add [eax],al
00009820  0C00              or al,0x0
00009822  2800              sub [eax],al
00009824  00EE              add dh,ch
00009826  0000              add [eax],al
00009828  0C00              or al,0x0
0000982A  2800              sub [eax],al
0000982C  00EE              add dh,ch
0000982E  0000              add [eax],al
00009830  0C00              or al,0x0
00009832  2800              sub [eax],al
00009834  00EE              add dh,ch
00009836  0000              add [eax],al
00009838  0C00              or al,0x0
0000983A  2800              sub [eax],al
0000983C  00EE              add dh,ch
0000983E  0000              add [eax],al
00009840  0C00              or al,0x0
00009842  2800              sub [eax],al
00009844  00EE              add dh,ch
00009846  0000              add [eax],al
00009848  0C00              or al,0x0
0000984A  2800              sub [eax],al
0000984C  00EE              add dh,ch
0000984E  0000              add [eax],al
00009850  0C00              or al,0x0
00009852  2800              sub [eax],al
00009854  00EE              add dh,ch
00009856  0000              add [eax],al
00009858  0C00              or al,0x0
0000985A  2800              sub [eax],al
0000985C  00EE              add dh,ch
0000985E  0000              add [eax],al
00009860  FF07              inc dword [edi]
00009862  0000              add [eax],al
00009864  0000              add [eax],al
00009866  0000              add [eax],al
00009868  0000              add [eax],al
0000986A  0000              add [eax],al
0000986C  FF0F              dec dword [edi]
0000986E  0000              add [eax],al
00009870  3000              xor [eax],al
00009872  0000              add [eax],al
00009874  0000              add [eax],al
00009876  0000              add [eax],al
00009878  0000              add [eax],al
0000987A  0000              add [eax],al
0000987C  0000              add [eax],al
0000987E  0000              add [eax],al
00009880  0000              add [eax],al
00009882  0000              add [eax],al
00009884  0000              add [eax],al
00009886  0000              add [eax],al
00009888  0000              add [eax],al
0000988A  0000              add [eax],al
0000988C  0000              add [eax],al
0000988E  0000              add [eax],al
00009890  0000              add [eax],al
00009892  0000              add [eax],al
00009894  0000              add [eax],al
00009896  0000              add [eax],al
00009898  0000              add [eax],al
0000989A  0000              add [eax],al
0000989C  0000              add [eax],al
0000989E  0000              add [eax],al
000098A0  0000              add [eax],al
000098A2  0000              add [eax],al
000098A4  0000              add [eax],al
000098A6  0000              add [eax],al
000098A8  0000              add [eax],al
000098AA  0000              add [eax],al
000098AC  0000              add [eax],al
000098AE  0000              add [eax],al
000098B0  0000              add [eax],al
000098B2  0000              add [eax],al
000098B4  0000              add [eax],al
000098B6  0000              add [eax],al
000098B8  0000              add [eax],al
000098BA  0000              add [eax],al
000098BC  0000              add [eax],al
000098BE  0000              add [eax],al
000098C0  0000              add [eax],al
000098C2  0000              add [eax],al
000098C4  0000              add [eax],al
000098C6  0000              add [eax],al
000098C8  0000              add [eax],al
000098CA  0000              add [eax],al
000098CC  0000              add [eax],al
000098CE  0000              add [eax],al
000098D0  0000              add [eax],al
000098D2  0000              add [eax],al
000098D4  0000              add [eax],al
000098D6  0000              add [eax],al
000098D8  0000              add [eax],al
000098DA  0000              add [eax],al
000098DC  0000              add [eax],al
000098DE  0000              add [eax],al
000098E0  0000              add [eax],al
000098E2  0000              add [eax],al
000098E4  0000              add [eax],al
000098E6  0000              add [eax],al
000098E8  0000              add [eax],al
000098EA  0000              add [eax],al
000098EC  0000              add [eax],al
000098EE  0000              add [eax],al
000098F0  0000              add [eax],al
000098F2  0000              add [eax],al
000098F4  0000              add [eax],al
000098F6  0000              add [eax],al
000098F8  0000              add [eax],al
000098FA  0000              add [eax],al
000098FC  0000              add [eax],al
000098FE  0000              add [eax],al
00009900  0000              add [eax],al
00009902  0000              add [eax],al
00009904  0000              add [eax],al
00009906  0000              add [eax],al
00009908  0000              add [eax],al
0000990A  0000              add [eax],al
0000990C  0000              add [eax],al
0000990E  0000              add [eax],al
00009910  0000              add [eax],al
00009912  0000              add [eax],al
00009914  0000              add [eax],al
00009916  0000              add [eax],al
00009918  0000              add [eax],al
0000991A  0000              add [eax],al
0000991C  0000              add [eax],al
0000991E  0000              add [eax],al
00009920  0000              add [eax],al
00009922  0000              add [eax],al
00009924  0000              add [eax],al
00009926  0000              add [eax],al
00009928  0000              add [eax],al
0000992A  0000              add [eax],al
0000992C  0000              add [eax],al
0000992E  0000              add [eax],al
00009930  0000              add [eax],al
00009932  0000              add [eax],al
00009934  0000              add [eax],al
00009936  0000              add [eax],al
00009938  0000              add [eax],al
0000993A  0000              add [eax],al
0000993C  0000              add [eax],al
0000993E  0000              add [eax],al
00009940  0000              add [eax],al
00009942  0000              add [eax],al
00009944  0000              add [eax],al
00009946  0000              add [eax],al
00009948  0000              add [eax],al
0000994A  0000              add [eax],al
0000994C  0000              add [eax],al
0000994E  0000              add [eax],al
00009950  0000              add [eax],al
00009952  0000              add [eax],al
00009954  0000              add [eax],al
00009956  0000              add [eax],al
00009958  0000              add [eax],al
0000995A  0000              add [eax],al
0000995C  0000              add [eax],al
0000995E  0000              add [eax],al
00009960  0000              add [eax],al
00009962  0000              add [eax],al
00009964  0000              add [eax],al
00009966  0000              add [eax],al
00009968  0000              add [eax],al
0000996A  0000              add [eax],al
0000996C  0000              add [eax],al
0000996E  0000              add [eax],al
00009970  0000              add [eax],al
00009972  0000              add [eax],al
00009974  0000              add [eax],al
00009976  0000              add [eax],al
00009978  0000              add [eax],al
0000997A  0000              add [eax],al
0000997C  0000              add [eax],al
0000997E  0000              add [eax],al
00009980  0000              add [eax],al
00009982  0000              add [eax],al
00009984  0000              add [eax],al
00009986  0000              add [eax],al
00009988  0000              add [eax],al
0000998A  0000              add [eax],al
0000998C  0000              add [eax],al
0000998E  0000              add [eax],al
00009990  0000              add [eax],al
00009992  0000              add [eax],al
00009994  0000              add [eax],al
00009996  0000              add [eax],al
00009998  0000              add [eax],al
0000999A  0000              add [eax],al
0000999C  0000              add [eax],al
0000999E  0000              add [eax],al
000099A0  0000              add [eax],al
000099A2  0000              add [eax],al
000099A4  0000              add [eax],al
000099A6  40                inc eax
000099A7  01FF              add edi,edi
000099A9  0000              add [eax],al
000099AB  00442E54          add [esi+ebp+0x54],al
000099AF  2E4F              cs dec edi
000099B1  53                push ebx
000099B2  2100              and [eax],eax
000099B4  49                dec ecx
000099B5  4E                dec esi
000099B6  54                push esp
000099B7  2030              and [eax],dh
000099B9  7838              js 0x99f3
000099BB  3000              xor [eax],al
000099BD  0000              add [eax],al
000099BF  008CC88ED88EC0    add [eax+ecx*8-0x3f712772],cl
000099C6  8ED0              mov ss,eax
000099C8  BC007C66BE        mov esp,0xbe667c00
000099CD  A09A000066        mov al,[0x6600009a]
000099D2  BF0C900000        mov edi,0x900c
000099D7  E8A20066BE        call dword 0xbe669a7e
000099DC  AC                lodsb
000099DD  99                cdq
000099DE  0000              add [eax],al
000099E0  66BF1C90          mov di,0x901c
000099E4  0000              add [eax],al
000099E6  E8930066BE        call dword 0xbe669a7e
000099EB  D09B000066BF      rcr byte [ebx-0x409a0000],1
000099F1  2490              and al,0x90
000099F3  0000              add [eax],al
000099F5  E8840066BE        call dword 0xbe669a7e
000099FA  D0AB000066BF      shr byte [ebx-0x409a0000],1
00009A00  3490              xor al,0x90
00009A02  0000              add [eax],al
00009A04  E8750066BE        call dword 0xbe669a7e
00009A09  D49A              aam 0x9a
00009A0B  0000              add [eax],al
00009A0D  66BF2C90          mov di,0x902c
00009A11  0000              add [eax],al
00009A13  E8660066BE        call dword 0xbe669a7e
00009A18  6898000066        push dword 0x66000098
00009A1D  BF3C900000        mov edi,0x903c
00009A22  E8570066B8        call dword 0xb8669a7e
00009A27  0000              add [eax],al
00009A29  0000              add [eax],al
00009A2B  8CD8              mov eax,ds
00009A2D  66C1E004          shl ax,byte 0x4
00009A31  66050490          add ax,0x9004
00009A35  0000              add [eax],al
00009A37  66A3469066B8      mov [0xb8669046],ax
00009A3D  0000              add [eax],al
00009A3F  0000              add [eax],al
00009A41  8CD8              mov eax,ds
00009A43  66C1E004          shl ax,byte 0x4
00009A47  66056090          add ax,0x9060
00009A4B  0000              add [eax],al
00009A4D  66A362980F01      mov [0x10f9862],ax
00009A53  16                push ss
00009A54  44                inc esp
00009A55  90                nop
00009A56  FA                cli
00009A57  0F011E            lidt [esi]
00009A5A  60                pushad
00009A5B  98                cwde
00009A5C  E492              in al,0x92
00009A5E  0C02              or al,0x2
00009A60  E692              out 0x92,al
00009A62  0F20C0            mov eax,cr0
00009A65  6683C801          or ax,byte +0x1
00009A69  0F22C0            mov cr0,eax
00009A6C  B838000F00        mov eax,0xf0038
00009A71  D86A23            fsubr dword [edx+0x23]
00009A74  68FF0F6A0B        push dword 0xb6a0fff
00009A79  6A00              push byte +0x0
00009A7B  CB                retf
00009A7C  6650              push ax
00009A7E  66B80000          mov ax,0x0
00009A82  0000              add [eax],al
00009A84  8CC8              mov eax,cs
00009A86  66C1E004          shl ax,byte 0x4
00009A8A  6601F0            add ax,si
00009A8D  67894702          mov [bx+0x2],eax
00009A91  66C1E810          shr ax,byte 0x10
00009A95  67884704          mov [bx+0x4],al
00009A99  67886707          mov [bx+0x7],ah
00009A9D  6658              pop ax
00009A9F  C3                ret
00009AA0  66B81300          mov ax,0x13
00009AA4  8EE8              mov gs,eax
00009AA6  66B82300          mov ax,0x23
00009AAA  8ED0              mov ss,eax
00009AAC  B8FF0F0000        mov eax,0xfff
00009AB1  89C4              mov esp,eax
00009AB3  66B81B00          mov ax,0x1b
00009AB7  8ED8              mov ds,eax
00009AB9  BD08000000        mov ebp,0x8
00009ABE  B60D              mov dh,0xd
00009AC0  B221              mov dl,0x21
00009AC2  E802000000        call dword 0x9ac9
00009AC7  EBFE              jmp short 0x9ac7
00009AC9  6650              push ax
00009ACB  66B80100          mov ax,0x1
00009ACF  CD80              int 0x80
00009AD1  6658              pop ax
00009AD3  C3                ret
00009AD4  6683F801          cmp ax,byte +0x1
00009AD8  7505              jnz 0x9adf
00009ADA  E8BD000000        call dword 0x9b9c
00009ADF  CF                iretd
00009AE0  CF                iretd
00009AE1  6650              push ax
00009AE3  6652              push dx
00009AE5  B40C              mov ah,0xc
00009AE7  B030              mov al,0x30
00009AE9  6566A308090000    mov [gs:0x908],ax
00009AF0  66BA2100          mov dx,0x21
00009AF4  E881000000        call dword 0x9b7a
00009AF9  6625FE00          and ax,0xfe
00009AFD  E880000000        call dword 0x9b82
00009B02  665A              pop dx
00009B04  6658              pop ax
00009B06  C3                ret
00009B07  6650              push ax
00009B09  6566A108090000    mov ax,[gs:0x908]
00009B10  3C39              cmp al,0x39
00009B12  7404              jz 0x9b18
00009B14  6640              inc ax
00009B16  EB02              jmp short 0x9b1a
00009B18  B030              mov al,0x30
00009B1A  6566A308090000    mov [gs:0x908],ax
00009B21  6658              pop ax
00009B23  66BA2000          mov dx,0x20
00009B27  E85D000000        call dword 0x9b89
00009B2C  CF                iretd
00009B2D  6650              push ax
00009B2F  B011              mov al,0x11
00009B31  E620              out 0x20,al
00009B33  E85E000000        call dword 0x9b96
00009B38  B020              mov al,0x20
00009B3A  E621              out 0x21,al
00009B3C  E855000000        call dword 0x9b96
00009B41  B004              mov al,0x4
00009B43  E621              out 0x21,al
00009B45  E84C000000        call dword 0x9b96
00009B4A  B011              mov al,0x11
00009B4C  E621              out 0x21,al
00009B4E  E843000000        call dword 0x9b96
00009B53  B011              mov al,0x11
00009B55  E6A0              out 0xa0,al
00009B57  E83A000000        call dword 0x9b96
00009B5C  B028              mov al,0x28
00009B5E  E6A1              out 0xa1,al
00009B60  E831000000        call dword 0x9b96
00009B65  B002              mov al,0x2
00009B67  E6A1              out 0xa1,al
00009B69  E828000000        call dword 0x9b96
00009B6E  B001              mov al,0x1
00009B70  E6A1              out 0xa1,al
00009B72  E81F000000        call dword 0x9b96
00009B77  6658              pop ax
00009B79  C3                ret
00009B7A  66ED              in ax,dx
00009B7C  E815000000        call dword 0x9b96
00009B81  C3                ret
00009B82  EE                out dx,al
00009B83  E80E000000        call dword 0x9b96
00009B88  C3                ret
00009B89  6650              push ax
00009B8B  B020              mov al,0x20
00009B8D  EE                out dx,al
00009B8E  E803000000        call dword 0x9b96
00009B93  6658              pop ax
00009B95  C3                ret
00009B96  90                nop
00009B97  90                nop
00009B98  90                nop
00009B99  90                nop
00009B9A  90                nop
00009B9B  C3                ret
00009B9C  55                push ebp
00009B9D  50                push eax
00009B9E  57                push edi
00009B9F  6651              push cx
00009BA1  6652              push dx
00009BA3  3E8A4D00          mov cl,[ds:ebp+0x0]
00009BA7  80F900            cmp cl,0x0
00009BAA  741A              jz 0x9bc6
00009BAC  B850000000        mov eax,0x50
00009BB1  F6E6              mul dh
00009BB3  00D0              add al,dl
00009BB5  D1E0              shl eax,1
00009BB7  89C7              mov edi,eax
00009BB9  88DC              mov ah,bl
00009BBB  88C8              mov al,cl
00009BBD  65668907          mov [gs:edi],ax
00009BC1  45                inc ebp
00009BC2  FEC2              inc dl
00009BC4  EBDD              jmp short 0x9ba3
00009BC6  665A              pop dx
00009BC8  6659              pop cx
00009BCA  5F                pop edi
00009BCB  58                pop eax
00009BCC  5D                pop ebp
00009BCD  C3                ret
00009BCE  0000              add [eax],al
00009BD0  0000              add [eax],al
00009BD2  0000              add [eax],al
00009BD4  0000              add [eax],al
00009BD6  0000              add [eax],al
00009BD8  0000              add [eax],al
00009BDA  0000              add [eax],al
00009BDC  0000              add [eax],al
00009BDE  0000              add [eax],al
00009BE0  0000              add [eax],al
00009BE2  0000              add [eax],al
00009BE4  0000              add [eax],al
00009BE6  0000              add [eax],al
00009BE8  0000              add [eax],al
00009BEA  0000              add [eax],al
00009BEC  0000              add [eax],al
00009BEE  0000              add [eax],al
00009BF0  0000              add [eax],al
00009BF2  0000              add [eax],al
00009BF4  0000              add [eax],al
00009BF6  0000              add [eax],al
00009BF8  0000              add [eax],al
00009BFA  0000              add [eax],al
00009BFC  0000              add [eax],al
00009BFE  0000              add [eax],al
00009C00  0000              add [eax],al
00009C02  0000              add [eax],al
00009C04  0000              add [eax],al
00009C06  0000              add [eax],al
00009C08  0000              add [eax],al
00009C0A  0000              add [eax],al
00009C0C  0000              add [eax],al
00009C0E  0000              add [eax],al
00009C10  0000              add [eax],al
00009C12  0000              add [eax],al
00009C14  0000              add [eax],al
00009C16  0000              add [eax],al
00009C18  0000              add [eax],al
00009C1A  0000              add [eax],al
00009C1C  0000              add [eax],al
00009C1E  0000              add [eax],al
00009C20  0000              add [eax],al
00009C22  0000              add [eax],al
00009C24  0000              add [eax],al
00009C26  0000              add [eax],al
00009C28  0000              add [eax],al
00009C2A  0000              add [eax],al
00009C2C  0000              add [eax],al
00009C2E  0000              add [eax],al
00009C30  0000              add [eax],al
00009C32  0000              add [eax],al
00009C34  0000              add [eax],al
00009C36  0000              add [eax],al
00009C38  0000              add [eax],al
00009C3A  0000              add [eax],al
00009C3C  0000              add [eax],al
00009C3E  0000              add [eax],al
00009C40  0000              add [eax],al
00009C42  0000              add [eax],al
00009C44  0000              add [eax],al
00009C46  0000              add [eax],al
00009C48  0000              add [eax],al
00009C4A  0000              add [eax],al
00009C4C  0000              add [eax],al
00009C4E  0000              add [eax],al
00009C50  0000              add [eax],al
00009C52  0000              add [eax],al
00009C54  0000              add [eax],al
00009C56  0000              add [eax],al
00009C58  0000              add [eax],al
00009C5A  0000              add [eax],al
00009C5C  0000              add [eax],al
00009C5E  0000              add [eax],al
00009C60  0000              add [eax],al
00009C62  0000              add [eax],al
00009C64  0000              add [eax],al
00009C66  0000              add [eax],al
00009C68  0000              add [eax],al
00009C6A  0000              add [eax],al
00009C6C  0000              add [eax],al
00009C6E  0000              add [eax],al
00009C70  0000              add [eax],al
00009C72  0000              add [eax],al
00009C74  0000              add [eax],al
00009C76  0000              add [eax],al
00009C78  0000              add [eax],al
00009C7A  0000              add [eax],al
00009C7C  0000              add [eax],al
00009C7E  0000              add [eax],al
00009C80  0000              add [eax],al
00009C82  0000              add [eax],al
00009C84  0000              add [eax],al
00009C86  0000              add [eax],al
00009C88  0000              add [eax],al
00009C8A  0000              add [eax],al
00009C8C  0000              add [eax],al
00009C8E  0000              add [eax],al
00009C90  0000              add [eax],al
00009C92  0000              add [eax],al
00009C94  0000              add [eax],al
00009C96  0000              add [eax],al
00009C98  0000              add [eax],al
00009C9A  0000              add [eax],al
00009C9C  0000              add [eax],al
00009C9E  0000              add [eax],al
00009CA0  0000              add [eax],al
00009CA2  0000              add [eax],al
00009CA4  0000              add [eax],al
00009CA6  0000              add [eax],al
00009CA8  0000              add [eax],al
00009CAA  0000              add [eax],al
00009CAC  0000              add [eax],al
00009CAE  0000              add [eax],al
00009CB0  0000              add [eax],al
00009CB2  0000              add [eax],al
00009CB4  0000              add [eax],al
00009CB6  0000              add [eax],al
00009CB8  0000              add [eax],al
00009CBA  0000              add [eax],al
00009CBC  0000              add [eax],al
00009CBE  0000              add [eax],al
00009CC0  0000              add [eax],al
00009CC2  0000              add [eax],al
00009CC4  0000              add [eax],al
00009CC6  0000              add [eax],al
00009CC8  0000              add [eax],al
00009CCA  0000              add [eax],al
00009CCC  0000              add [eax],al
00009CCE  0000              add [eax],al
00009CD0  0000              add [eax],al
00009CD2  0000              add [eax],al
00009CD4  0000              add [eax],al
00009CD6  0000              add [eax],al
00009CD8  0000              add [eax],al
00009CDA  0000              add [eax],al
00009CDC  0000              add [eax],al
00009CDE  0000              add [eax],al
00009CE0  0000              add [eax],al
00009CE2  0000              add [eax],al
00009CE4  0000              add [eax],al
00009CE6  0000              add [eax],al
00009CE8  0000              add [eax],al
00009CEA  0000              add [eax],al
00009CEC  0000              add [eax],al
00009CEE  0000              add [eax],al
00009CF0  0000              add [eax],al
00009CF2  0000              add [eax],al
00009CF4  0000              add [eax],al
00009CF6  0000              add [eax],al
00009CF8  0000              add [eax],al
00009CFA  0000              add [eax],al
00009CFC  0000              add [eax],al
00009CFE  0000              add [eax],al
00009D00  0000              add [eax],al
00009D02  0000              add [eax],al
00009D04  0000              add [eax],al
00009D06  0000              add [eax],al
00009D08  0000              add [eax],al
00009D0A  0000              add [eax],al
00009D0C  0000              add [eax],al
00009D0E  0000              add [eax],al
00009D10  0000              add [eax],al
00009D12  0000              add [eax],al
00009D14  0000              add [eax],al
00009D16  0000              add [eax],al
00009D18  0000              add [eax],al
00009D1A  0000              add [eax],al
00009D1C  0000              add [eax],al
00009D1E  0000              add [eax],al
00009D20  0000              add [eax],al
00009D22  0000              add [eax],al
00009D24  0000              add [eax],al
00009D26  0000              add [eax],al
00009D28  0000              add [eax],al
00009D2A  0000              add [eax],al
00009D2C  0000              add [eax],al
00009D2E  0000              add [eax],al
00009D30  0000              add [eax],al
00009D32  0000              add [eax],al
00009D34  0000              add [eax],al
00009D36  0000              add [eax],al
00009D38  0000              add [eax],al
00009D3A  0000              add [eax],al
00009D3C  0000              add [eax],al
00009D3E  0000              add [eax],al
00009D40  0000              add [eax],al
00009D42  0000              add [eax],al
00009D44  0000              add [eax],al
00009D46  0000              add [eax],al
00009D48  0000              add [eax],al
00009D4A  0000              add [eax],al
00009D4C  0000              add [eax],al
00009D4E  0000              add [eax],al
00009D50  0000              add [eax],al
00009D52  0000              add [eax],al
00009D54  0000              add [eax],al
00009D56  0000              add [eax],al
00009D58  0000              add [eax],al
00009D5A  0000              add [eax],al
00009D5C  0000              add [eax],al
00009D5E  0000              add [eax],al
00009D60  0000              add [eax],al
00009D62  0000              add [eax],al
00009D64  0000              add [eax],al
00009D66  0000              add [eax],al
00009D68  0000              add [eax],al
00009D6A  0000              add [eax],al
00009D6C  0000              add [eax],al
00009D6E  0000              add [eax],al
00009D70  0000              add [eax],al
00009D72  0000              add [eax],al
00009D74  0000              add [eax],al
00009D76  0000              add [eax],al
00009D78  0000              add [eax],al
00009D7A  0000              add [eax],al
00009D7C  0000              add [eax],al
00009D7E  0000              add [eax],al
00009D80  0000              add [eax],al
00009D82  0000              add [eax],al
00009D84  0000              add [eax],al
00009D86  0000              add [eax],al
00009D88  0000              add [eax],al
00009D8A  0000              add [eax],al
00009D8C  0000              add [eax],al
00009D8E  0000              add [eax],al
00009D90  0000              add [eax],al
00009D92  0000              add [eax],al
00009D94  0000              add [eax],al
00009D96  0000              add [eax],al
00009D98  0000              add [eax],al
00009D9A  0000              add [eax],al
00009D9C  0000              add [eax],al
00009D9E  0000              add [eax],al
00009DA0  0000              add [eax],al
00009DA2  0000              add [eax],al
00009DA4  0000              add [eax],al
00009DA6  0000              add [eax],al
00009DA8  0000              add [eax],al
00009DAA  0000              add [eax],al
00009DAC  0000              add [eax],al
00009DAE  0000              add [eax],al
00009DB0  0000              add [eax],al
00009DB2  0000              add [eax],al
00009DB4  0000              add [eax],al
00009DB6  0000              add [eax],al
00009DB8  0000              add [eax],al
00009DBA  0000              add [eax],al
00009DBC  0000              add [eax],al
00009DBE  0000              add [eax],al
00009DC0  0000              add [eax],al
00009DC2  0000              add [eax],al
00009DC4  0000              add [eax],al
00009DC6  0000              add [eax],al
00009DC8  0000              add [eax],al
00009DCA  0000              add [eax],al
00009DCC  0000              add [eax],al
00009DCE  0000              add [eax],al
00009DD0  0000              add [eax],al
00009DD2  0000              add [eax],al
00009DD4  0000              add [eax],al
00009DD6  0000              add [eax],al
00009DD8  0000              add [eax],al
00009DDA  0000              add [eax],al
00009DDC  0000              add [eax],al
00009DDE  0000              add [eax],al
00009DE0  0000              add [eax],al
00009DE2  0000              add [eax],al
00009DE4  0000              add [eax],al
00009DE6  0000              add [eax],al
00009DE8  0000              add [eax],al
00009DEA  0000              add [eax],al
00009DEC  0000              add [eax],al
00009DEE  0000              add [eax],al
00009DF0  0000              add [eax],al
00009DF2  0000              add [eax],al
00009DF4  0000              add [eax],al
00009DF6  0000              add [eax],al
00009DF8  0000              add [eax],al
00009DFA  0000              add [eax],al
00009DFC  0000              add [eax],al
00009DFE  0000              add [eax],al
00009E00  0000              add [eax],al
00009E02  0000              add [eax],al
00009E04  0000              add [eax],al
00009E06  0000              add [eax],al
00009E08  0000              add [eax],al
00009E0A  0000              add [eax],al
00009E0C  0000              add [eax],al
00009E0E  0000              add [eax],al
00009E10  0000              add [eax],al
00009E12  0000              add [eax],al
00009E14  0000              add [eax],al
00009E16  0000              add [eax],al
00009E18  0000              add [eax],al
00009E1A  0000              add [eax],al
00009E1C  0000              add [eax],al
00009E1E  0000              add [eax],al
00009E20  0000              add [eax],al
00009E22  0000              add [eax],al
00009E24  0000              add [eax],al
00009E26  0000              add [eax],al
00009E28  0000              add [eax],al
00009E2A  0000              add [eax],al
00009E2C  0000              add [eax],al
00009E2E  0000              add [eax],al
00009E30  0000              add [eax],al
00009E32  0000              add [eax],al
00009E34  0000              add [eax],al
00009E36  0000              add [eax],al
00009E38  0000              add [eax],al
00009E3A  0000              add [eax],al
00009E3C  0000              add [eax],al
00009E3E  0000              add [eax],al
00009E40  0000              add [eax],al
00009E42  0000              add [eax],al
00009E44  0000              add [eax],al
00009E46  0000              add [eax],al
00009E48  0000              add [eax],al
00009E4A  0000              add [eax],al
00009E4C  0000              add [eax],al
00009E4E  0000              add [eax],al
00009E50  0000              add [eax],al
00009E52  0000              add [eax],al
00009E54  0000              add [eax],al
00009E56  0000              add [eax],al
00009E58  0000              add [eax],al
00009E5A  0000              add [eax],al
00009E5C  0000              add [eax],al
00009E5E  0000              add [eax],al
00009E60  0000              add [eax],al
00009E62  0000              add [eax],al
00009E64  0000              add [eax],al
00009E66  0000              add [eax],al
00009E68  0000              add [eax],al
00009E6A  0000              add [eax],al
00009E6C  0000              add [eax],al
00009E6E  0000              add [eax],al
00009E70  0000              add [eax],al
00009E72  0000              add [eax],al
00009E74  0000              add [eax],al
00009E76  0000              add [eax],al
00009E78  0000              add [eax],al
00009E7A  0000              add [eax],al
00009E7C  0000              add [eax],al
00009E7E  0000              add [eax],al
00009E80  0000              add [eax],al
00009E82  0000              add [eax],al
00009E84  0000              add [eax],al
00009E86  0000              add [eax],al
00009E88  0000              add [eax],al
00009E8A  0000              add [eax],al
00009E8C  0000              add [eax],al
00009E8E  0000              add [eax],al
00009E90  0000              add [eax],al
00009E92  0000              add [eax],al
00009E94  0000              add [eax],al
00009E96  0000              add [eax],al
00009E98  0000              add [eax],al
00009E9A  0000              add [eax],al
00009E9C  0000              add [eax],al
00009E9E  0000              add [eax],al
00009EA0  0000              add [eax],al
00009EA2  0000              add [eax],al
00009EA4  0000              add [eax],al
00009EA6  0000              add [eax],al
00009EA8  0000              add [eax],al
00009EAA  0000              add [eax],al
00009EAC  0000              add [eax],al
00009EAE  0000              add [eax],al
00009EB0  0000              add [eax],al
00009EB2  0000              add [eax],al
00009EB4  0000              add [eax],al
00009EB6  0000              add [eax],al
00009EB8  0000              add [eax],al
00009EBA  0000              add [eax],al
00009EBC  0000              add [eax],al
00009EBE  0000              add [eax],al
00009EC0  0000              add [eax],al
00009EC2  0000              add [eax],al
00009EC4  0000              add [eax],al
00009EC6  0000              add [eax],al
00009EC8  0000              add [eax],al
00009ECA  0000              add [eax],al
00009ECC  0000              add [eax],al
00009ECE  0000              add [eax],al
00009ED0  0000              add [eax],al
00009ED2  0000              add [eax],al
00009ED4  0000              add [eax],al
00009ED6  0000              add [eax],al
00009ED8  0000              add [eax],al
00009EDA  0000              add [eax],al
00009EDC  0000              add [eax],al
00009EDE  0000              add [eax],al
00009EE0  0000              add [eax],al
00009EE2  0000              add [eax],al
00009EE4  0000              add [eax],al
00009EE6  0000              add [eax],al
00009EE8  0000              add [eax],al
00009EEA  0000              add [eax],al
00009EEC  0000              add [eax],al
00009EEE  0000              add [eax],al
00009EF0  0000              add [eax],al
00009EF2  0000              add [eax],al
00009EF4  0000              add [eax],al
00009EF6  0000              add [eax],al
00009EF8  0000              add [eax],al
00009EFA  0000              add [eax],al
00009EFC  0000              add [eax],al
00009EFE  0000              add [eax],al
00009F00  0000              add [eax],al
00009F02  0000              add [eax],al
00009F04  0000              add [eax],al
00009F06  0000              add [eax],al
00009F08  0000              add [eax],al
00009F0A  0000              add [eax],al
00009F0C  0000              add [eax],al
00009F0E  0000              add [eax],al
00009F10  0000              add [eax],al
00009F12  0000              add [eax],al
00009F14  0000              add [eax],al
00009F16  0000              add [eax],al
00009F18  0000              add [eax],al
00009F1A  0000              add [eax],al
00009F1C  0000              add [eax],al
00009F1E  0000              add [eax],al
00009F20  0000              add [eax],al
00009F22  0000              add [eax],al
00009F24  0000              add [eax],al
00009F26  0000              add [eax],al
00009F28  0000              add [eax],al
00009F2A  0000              add [eax],al
00009F2C  0000              add [eax],al
00009F2E  0000              add [eax],al
00009F30  0000              add [eax],al
00009F32  0000              add [eax],al
00009F34  0000              add [eax],al
00009F36  0000              add [eax],al
00009F38  0000              add [eax],al
00009F3A  0000              add [eax],al
00009F3C  0000              add [eax],al
00009F3E  0000              add [eax],al
00009F40  0000              add [eax],al
00009F42  0000              add [eax],al
00009F44  0000              add [eax],al
00009F46  0000              add [eax],al
00009F48  0000              add [eax],al
00009F4A  0000              add [eax],al
00009F4C  0000              add [eax],al
00009F4E  0000              add [eax],al
00009F50  0000              add [eax],al
00009F52  0000              add [eax],al
00009F54  0000              add [eax],al
00009F56  0000              add [eax],al
00009F58  0000              add [eax],al
00009F5A  0000              add [eax],al
00009F5C  0000              add [eax],al
00009F5E  0000              add [eax],al
00009F60  0000              add [eax],al
00009F62  0000              add [eax],al
00009F64  0000              add [eax],al
00009F66  0000              add [eax],al
00009F68  0000              add [eax],al
00009F6A  0000              add [eax],al
00009F6C  0000              add [eax],al
00009F6E  0000              add [eax],al
00009F70  0000              add [eax],al
00009F72  0000              add [eax],al
00009F74  0000              add [eax],al
00009F76  0000              add [eax],al
00009F78  0000              add [eax],al
00009F7A  0000              add [eax],al
00009F7C  0000              add [eax],al
00009F7E  0000              add [eax],al
00009F80  0000              add [eax],al
00009F82  0000              add [eax],al
00009F84  0000              add [eax],al
00009F86  0000              add [eax],al
00009F88  0000              add [eax],al
00009F8A  0000              add [eax],al
00009F8C  0000              add [eax],al
00009F8E  0000              add [eax],al
00009F90  0000              add [eax],al
00009F92  0000              add [eax],al
00009F94  0000              add [eax],al
00009F96  0000              add [eax],al
00009F98  0000              add [eax],al
00009F9A  0000              add [eax],al
00009F9C  0000              add [eax],al
00009F9E  0000              add [eax],al
00009FA0  0000              add [eax],al
00009FA2  0000              add [eax],al
00009FA4  0000              add [eax],al
00009FA6  0000              add [eax],al
00009FA8  0000              add [eax],al
00009FAA  0000              add [eax],al
00009FAC  0000              add [eax],al
00009FAE  0000              add [eax],al
00009FB0  0000              add [eax],al
00009FB2  0000              add [eax],al
00009FB4  0000              add [eax],al
00009FB6  0000              add [eax],al
00009FB8  0000              add [eax],al
00009FBA  0000              add [eax],al
00009FBC  0000              add [eax],al
00009FBE  0000              add [eax],al
00009FC0  0000              add [eax],al
00009FC2  0000              add [eax],al
00009FC4  0000              add [eax],al
00009FC6  0000              add [eax],al
00009FC8  0000              add [eax],al
00009FCA  0000              add [eax],al
00009FCC  0000              add [eax],al
00009FCE  0000              add [eax],al
00009FD0  0000              add [eax],al
00009FD2  0000              add [eax],al
00009FD4  0000              add [eax],al
00009FD6  0000              add [eax],al
00009FD8  0000              add [eax],al
00009FDA  0000              add [eax],al
00009FDC  0000              add [eax],al
00009FDE  0000              add [eax],al
00009FE0  0000              add [eax],al
00009FE2  0000              add [eax],al
00009FE4  0000              add [eax],al
00009FE6  0000              add [eax],al
00009FE8  0000              add [eax],al
00009FEA  0000              add [eax],al
00009FEC  0000              add [eax],al
00009FEE  0000              add [eax],al
00009FF0  0000              add [eax],al
00009FF2  0000              add [eax],al
00009FF4  0000              add [eax],al
00009FF6  0000              add [eax],al
00009FF8  0000              add [eax],al
00009FFA  0000              add [eax],al
00009FFC  0000              add [eax],al
00009FFE  0000              add [eax],al
0000A000  0000              add [eax],al
0000A002  0000              add [eax],al
0000A004  0000              add [eax],al
0000A006  0000              add [eax],al
0000A008  0000              add [eax],al
0000A00A  0000              add [eax],al
0000A00C  0000              add [eax],al
0000A00E  0000              add [eax],al
0000A010  0000              add [eax],al
0000A012  0000              add [eax],al
0000A014  0000              add [eax],al
0000A016  0000              add [eax],al
0000A018  0000              add [eax],al
0000A01A  0000              add [eax],al
0000A01C  0000              add [eax],al
0000A01E  0000              add [eax],al
0000A020  0000              add [eax],al
0000A022  0000              add [eax],al
0000A024  0000              add [eax],al
0000A026  0000              add [eax],al
0000A028  0000              add [eax],al
0000A02A  0000              add [eax],al
0000A02C  0000              add [eax],al
0000A02E  0000              add [eax],al
0000A030  0000              add [eax],al
0000A032  0000              add [eax],al
0000A034  0000              add [eax],al
0000A036  0000              add [eax],al
0000A038  0000              add [eax],al
0000A03A  0000              add [eax],al
0000A03C  0000              add [eax],al
0000A03E  0000              add [eax],al
0000A040  0000              add [eax],al
0000A042  0000              add [eax],al
0000A044  0000              add [eax],al
0000A046  0000              add [eax],al
0000A048  0000              add [eax],al
0000A04A  0000              add [eax],al
0000A04C  0000              add [eax],al
0000A04E  0000              add [eax],al
0000A050  0000              add [eax],al
0000A052  0000              add [eax],al
0000A054  0000              add [eax],al
0000A056  0000              add [eax],al
0000A058  0000              add [eax],al
0000A05A  0000              add [eax],al
0000A05C  0000              add [eax],al
0000A05E  0000              add [eax],al
0000A060  0000              add [eax],al
0000A062  0000              add [eax],al
0000A064  0000              add [eax],al
0000A066  0000              add [eax],al
0000A068  0000              add [eax],al
0000A06A  0000              add [eax],al
0000A06C  0000              add [eax],al
0000A06E  0000              add [eax],al
0000A070  0000              add [eax],al
0000A072  0000              add [eax],al
0000A074  0000              add [eax],al
0000A076  0000              add [eax],al
0000A078  0000              add [eax],al
0000A07A  0000              add [eax],al
0000A07C  0000              add [eax],al
0000A07E  0000              add [eax],al
0000A080  0000              add [eax],al
0000A082  0000              add [eax],al
0000A084  0000              add [eax],al
0000A086  0000              add [eax],al
0000A088  0000              add [eax],al
0000A08A  0000              add [eax],al
0000A08C  0000              add [eax],al
0000A08E  0000              add [eax],al
0000A090  0000              add [eax],al
0000A092  0000              add [eax],al
0000A094  0000              add [eax],al
0000A096  0000              add [eax],al
0000A098  0000              add [eax],al
0000A09A  0000              add [eax],al
0000A09C  0000              add [eax],al
0000A09E  0000              add [eax],al
0000A0A0  0000              add [eax],al
0000A0A2  0000              add [eax],al
0000A0A4  0000              add [eax],al
0000A0A6  0000              add [eax],al
0000A0A8  0000              add [eax],al
0000A0AA  0000              add [eax],al
0000A0AC  0000              add [eax],al
0000A0AE  0000              add [eax],al
0000A0B0  0000              add [eax],al
0000A0B2  0000              add [eax],al
0000A0B4  0000              add [eax],al
0000A0B6  0000              add [eax],al
0000A0B8  0000              add [eax],al
0000A0BA  0000              add [eax],al
0000A0BC  0000              add [eax],al
0000A0BE  0000              add [eax],al
0000A0C0  0000              add [eax],al
0000A0C2  0000              add [eax],al
0000A0C4  0000              add [eax],al
0000A0C6  0000              add [eax],al
0000A0C8  0000              add [eax],al
0000A0CA  0000              add [eax],al
0000A0CC  0000              add [eax],al
0000A0CE  0000              add [eax],al
0000A0D0  0000              add [eax],al
0000A0D2  0000              add [eax],al
0000A0D4  0000              add [eax],al
0000A0D6  0000              add [eax],al
0000A0D8  0000              add [eax],al
0000A0DA  0000              add [eax],al
0000A0DC  0000              add [eax],al
0000A0DE  0000              add [eax],al
0000A0E0  0000              add [eax],al
0000A0E2  0000              add [eax],al
0000A0E4  0000              add [eax],al
0000A0E6  0000              add [eax],al
0000A0E8  0000              add [eax],al
0000A0EA  0000              add [eax],al
0000A0EC  0000              add [eax],al
0000A0EE  0000              add [eax],al
0000A0F0  0000              add [eax],al
0000A0F2  0000              add [eax],al
0000A0F4  0000              add [eax],al
0000A0F6  0000              add [eax],al
0000A0F8  0000              add [eax],al
0000A0FA  0000              add [eax],al
0000A0FC  0000              add [eax],al
0000A0FE  0000              add [eax],al
0000A100  0000              add [eax],al
0000A102  0000              add [eax],al
0000A104  0000              add [eax],al
0000A106  0000              add [eax],al
0000A108  0000              add [eax],al
0000A10A  0000              add [eax],al
0000A10C  0000              add [eax],al
0000A10E  0000              add [eax],al
0000A110  0000              add [eax],al
0000A112  0000              add [eax],al
0000A114  0000              add [eax],al
0000A116  0000              add [eax],al
0000A118  0000              add [eax],al
0000A11A  0000              add [eax],al
0000A11C  0000              add [eax],al
0000A11E  0000              add [eax],al
0000A120  0000              add [eax],al
0000A122  0000              add [eax],al
0000A124  0000              add [eax],al
0000A126  0000              add [eax],al
0000A128  0000              add [eax],al
0000A12A  0000              add [eax],al
0000A12C  0000              add [eax],al
0000A12E  0000              add [eax],al
0000A130  0000              add [eax],al
0000A132  0000              add [eax],al
0000A134  0000              add [eax],al
0000A136  0000              add [eax],al
0000A138  0000              add [eax],al
0000A13A  0000              add [eax],al
0000A13C  0000              add [eax],al
0000A13E  0000              add [eax],al
0000A140  0000              add [eax],al
0000A142  0000              add [eax],al
0000A144  0000              add [eax],al
0000A146  0000              add [eax],al
0000A148  0000              add [eax],al
0000A14A  0000              add [eax],al
0000A14C  0000              add [eax],al
0000A14E  0000              add [eax],al
0000A150  0000              add [eax],al
0000A152  0000              add [eax],al
0000A154  0000              add [eax],al
0000A156  0000              add [eax],al
0000A158  0000              add [eax],al
0000A15A  0000              add [eax],al
0000A15C  0000              add [eax],al
0000A15E  0000              add [eax],al
0000A160  0000              add [eax],al
0000A162  0000              add [eax],al
0000A164  0000              add [eax],al
0000A166  0000              add [eax],al
0000A168  0000              add [eax],al
0000A16A  0000              add [eax],al
0000A16C  0000              add [eax],al
0000A16E  0000              add [eax],al
0000A170  0000              add [eax],al
0000A172  0000              add [eax],al
0000A174  0000              add [eax],al
0000A176  0000              add [eax],al
0000A178  0000              add [eax],al
0000A17A  0000              add [eax],al
0000A17C  0000              add [eax],al
0000A17E  0000              add [eax],al
0000A180  0000              add [eax],al
0000A182  0000              add [eax],al
0000A184  0000              add [eax],al
0000A186  0000              add [eax],al
0000A188  0000              add [eax],al
0000A18A  0000              add [eax],al
0000A18C  0000              add [eax],al
0000A18E  0000              add [eax],al
0000A190  0000              add [eax],al
0000A192  0000              add [eax],al
0000A194  0000              add [eax],al
0000A196  0000              add [eax],al
0000A198  0000              add [eax],al
0000A19A  0000              add [eax],al
0000A19C  0000              add [eax],al
0000A19E  0000              add [eax],al
0000A1A0  0000              add [eax],al
0000A1A2  0000              add [eax],al
0000A1A4  0000              add [eax],al
0000A1A6  0000              add [eax],al
0000A1A8  0000              add [eax],al
0000A1AA  0000              add [eax],al
0000A1AC  0000              add [eax],al
0000A1AE  0000              add [eax],al
0000A1B0  0000              add [eax],al
0000A1B2  0000              add [eax],al
0000A1B4  0000              add [eax],al
0000A1B6  0000              add [eax],al
0000A1B8  0000              add [eax],al
0000A1BA  0000              add [eax],al
0000A1BC  0000              add [eax],al
0000A1BE  0000              add [eax],al
0000A1C0  0000              add [eax],al
0000A1C2  0000              add [eax],al
0000A1C4  0000              add [eax],al
0000A1C6  0000              add [eax],al
0000A1C8  0000              add [eax],al
0000A1CA  0000              add [eax],al
0000A1CC  0000              add [eax],al
0000A1CE  0000              add [eax],al
0000A1D0  0000              add [eax],al
0000A1D2  0000              add [eax],al
0000A1D4  0000              add [eax],al
0000A1D6  0000              add [eax],al
0000A1D8  0000              add [eax],al
0000A1DA  0000              add [eax],al
0000A1DC  0000              add [eax],al
0000A1DE  0000              add [eax],al
0000A1E0  0000              add [eax],al
0000A1E2  0000              add [eax],al
0000A1E4  0000              add [eax],al
0000A1E6  0000              add [eax],al
0000A1E8  0000              add [eax],al
0000A1EA  0000              add [eax],al
0000A1EC  0000              add [eax],al
0000A1EE  0000              add [eax],al
0000A1F0  0000              add [eax],al
0000A1F2  0000              add [eax],al
0000A1F4  0000              add [eax],al
0000A1F6  0000              add [eax],al
0000A1F8  0000              add [eax],al
0000A1FA  0000              add [eax],al
0000A1FC  0000              add [eax],al
0000A1FE  0000              add [eax],al
0000A200  0000              add [eax],al
0000A202  0000              add [eax],al
0000A204  0000              add [eax],al
0000A206  0000              add [eax],al
0000A208  0000              add [eax],al
0000A20A  0000              add [eax],al
0000A20C  0000              add [eax],al
0000A20E  0000              add [eax],al
0000A210  0000              add [eax],al
0000A212  0000              add [eax],al
0000A214  0000              add [eax],al
0000A216  0000              add [eax],al
0000A218  0000              add [eax],al
0000A21A  0000              add [eax],al
0000A21C  0000              add [eax],al
0000A21E  0000              add [eax],al
0000A220  0000              add [eax],al
0000A222  0000              add [eax],al
0000A224  0000              add [eax],al
0000A226  0000              add [eax],al
0000A228  0000              add [eax],al
0000A22A  0000              add [eax],al
0000A22C  0000              add [eax],al
0000A22E  0000              add [eax],al
0000A230  0000              add [eax],al
0000A232  0000              add [eax],al
0000A234  0000              add [eax],al
0000A236  0000              add [eax],al
0000A238  0000              add [eax],al
0000A23A  0000              add [eax],al
0000A23C  0000              add [eax],al
0000A23E  0000              add [eax],al
0000A240  0000              add [eax],al
0000A242  0000              add [eax],al
0000A244  0000              add [eax],al
0000A246  0000              add [eax],al
0000A248  0000              add [eax],al
0000A24A  0000              add [eax],al
0000A24C  0000              add [eax],al
0000A24E  0000              add [eax],al
0000A250  0000              add [eax],al
0000A252  0000              add [eax],al
0000A254  0000              add [eax],al
0000A256  0000              add [eax],al
0000A258  0000              add [eax],al
0000A25A  0000              add [eax],al
0000A25C  0000              add [eax],al
0000A25E  0000              add [eax],al
0000A260  0000              add [eax],al
0000A262  0000              add [eax],al
0000A264  0000              add [eax],al
0000A266  0000              add [eax],al
0000A268  0000              add [eax],al
0000A26A  0000              add [eax],al
0000A26C  0000              add [eax],al
0000A26E  0000              add [eax],al
0000A270  0000              add [eax],al
0000A272  0000              add [eax],al
0000A274  0000              add [eax],al
0000A276  0000              add [eax],al
0000A278  0000              add [eax],al
0000A27A  0000              add [eax],al
0000A27C  0000              add [eax],al
0000A27E  0000              add [eax],al
0000A280  0000              add [eax],al
0000A282  0000              add [eax],al
0000A284  0000              add [eax],al
0000A286  0000              add [eax],al
0000A288  0000              add [eax],al
0000A28A  0000              add [eax],al
0000A28C  0000              add [eax],al
0000A28E  0000              add [eax],al
0000A290  0000              add [eax],al
0000A292  0000              add [eax],al
0000A294  0000              add [eax],al
0000A296  0000              add [eax],al
0000A298  0000              add [eax],al
0000A29A  0000              add [eax],al
0000A29C  0000              add [eax],al
0000A29E  0000              add [eax],al
0000A2A0  0000              add [eax],al
0000A2A2  0000              add [eax],al
0000A2A4  0000              add [eax],al
0000A2A6  0000              add [eax],al
0000A2A8  0000              add [eax],al
0000A2AA  0000              add [eax],al
0000A2AC  0000              add [eax],al
0000A2AE  0000              add [eax],al
0000A2B0  0000              add [eax],al
0000A2B2  0000              add [eax],al
0000A2B4  0000              add [eax],al
0000A2B6  0000              add [eax],al
0000A2B8  0000              add [eax],al
0000A2BA  0000              add [eax],al
0000A2BC  0000              add [eax],al
0000A2BE  0000              add [eax],al
0000A2C0  0000              add [eax],al
0000A2C2  0000              add [eax],al
0000A2C4  0000              add [eax],al
0000A2C6  0000              add [eax],al
0000A2C8  0000              add [eax],al
0000A2CA  0000              add [eax],al
0000A2CC  0000              add [eax],al
0000A2CE  0000              add [eax],al
0000A2D0  0000              add [eax],al
0000A2D2  0000              add [eax],al
0000A2D4  0000              add [eax],al
0000A2D6  0000              add [eax],al
0000A2D8  0000              add [eax],al
0000A2DA  0000              add [eax],al
0000A2DC  0000              add [eax],al
0000A2DE  0000              add [eax],al
0000A2E0  0000              add [eax],al
0000A2E2  0000              add [eax],al
0000A2E4  0000              add [eax],al
0000A2E6  0000              add [eax],al
0000A2E8  0000              add [eax],al
0000A2EA  0000              add [eax],al
0000A2EC  0000              add [eax],al
0000A2EE  0000              add [eax],al
0000A2F0  0000              add [eax],al
0000A2F2  0000              add [eax],al
0000A2F4  0000              add [eax],al
0000A2F6  0000              add [eax],al
0000A2F8  0000              add [eax],al
0000A2FA  0000              add [eax],al
0000A2FC  0000              add [eax],al
0000A2FE  0000              add [eax],al
0000A300  0000              add [eax],al
0000A302  0000              add [eax],al
0000A304  0000              add [eax],al
0000A306  0000              add [eax],al
0000A308  0000              add [eax],al
0000A30A  0000              add [eax],al
0000A30C  0000              add [eax],al
0000A30E  0000              add [eax],al
0000A310  0000              add [eax],al
0000A312  0000              add [eax],al
0000A314  0000              add [eax],al
0000A316  0000              add [eax],al
0000A318  0000              add [eax],al
0000A31A  0000              add [eax],al
0000A31C  0000              add [eax],al
0000A31E  0000              add [eax],al
0000A320  0000              add [eax],al
0000A322  0000              add [eax],al
0000A324  0000              add [eax],al
0000A326  0000              add [eax],al
0000A328  0000              add [eax],al
0000A32A  0000              add [eax],al
0000A32C  0000              add [eax],al
0000A32E  0000              add [eax],al
0000A330  0000              add [eax],al
0000A332  0000              add [eax],al
0000A334  0000              add [eax],al
0000A336  0000              add [eax],al
0000A338  0000              add [eax],al
0000A33A  0000              add [eax],al
0000A33C  0000              add [eax],al
0000A33E  0000              add [eax],al
0000A340  0000              add [eax],al
0000A342  0000              add [eax],al
0000A344  0000              add [eax],al
0000A346  0000              add [eax],al
0000A348  0000              add [eax],al
0000A34A  0000              add [eax],al
0000A34C  0000              add [eax],al
0000A34E  0000              add [eax],al
0000A350  0000              add [eax],al
0000A352  0000              add [eax],al
0000A354  0000              add [eax],al
0000A356  0000              add [eax],al
0000A358  0000              add [eax],al
0000A35A  0000              add [eax],al
0000A35C  0000              add [eax],al
0000A35E  0000              add [eax],al
0000A360  0000              add [eax],al
0000A362  0000              add [eax],al
0000A364  0000              add [eax],al
0000A366  0000              add [eax],al
0000A368  0000              add [eax],al
0000A36A  0000              add [eax],al
0000A36C  0000              add [eax],al
0000A36E  0000              add [eax],al
0000A370  0000              add [eax],al
0000A372  0000              add [eax],al
0000A374  0000              add [eax],al
0000A376  0000              add [eax],al
0000A378  0000              add [eax],al
0000A37A  0000              add [eax],al
0000A37C  0000              add [eax],al
0000A37E  0000              add [eax],al
0000A380  0000              add [eax],al
0000A382  0000              add [eax],al
0000A384  0000              add [eax],al
0000A386  0000              add [eax],al
0000A388  0000              add [eax],al
0000A38A  0000              add [eax],al
0000A38C  0000              add [eax],al
0000A38E  0000              add [eax],al
0000A390  0000              add [eax],al
0000A392  0000              add [eax],al
0000A394  0000              add [eax],al
0000A396  0000              add [eax],al
0000A398  0000              add [eax],al
0000A39A  0000              add [eax],al
0000A39C  0000              add [eax],al
0000A39E  0000              add [eax],al
0000A3A0  0000              add [eax],al
0000A3A2  0000              add [eax],al
0000A3A4  0000              add [eax],al
0000A3A6  0000              add [eax],al
0000A3A8  0000              add [eax],al
0000A3AA  0000              add [eax],al
0000A3AC  0000              add [eax],al
0000A3AE  0000              add [eax],al
0000A3B0  0000              add [eax],al
0000A3B2  0000              add [eax],al
0000A3B4  0000              add [eax],al
0000A3B6  0000              add [eax],al
0000A3B8  0000              add [eax],al
0000A3BA  0000              add [eax],al
0000A3BC  0000              add [eax],al
0000A3BE  0000              add [eax],al
0000A3C0  0000              add [eax],al
0000A3C2  0000              add [eax],al
0000A3C4  0000              add [eax],al
0000A3C6  0000              add [eax],al
0000A3C8  0000              add [eax],al
0000A3CA  0000              add [eax],al
0000A3CC  0000              add [eax],al
0000A3CE  0000              add [eax],al
0000A3D0  0000              add [eax],al
0000A3D2  0000              add [eax],al
0000A3D4  0000              add [eax],al
0000A3D6  0000              add [eax],al
0000A3D8  0000              add [eax],al
0000A3DA  0000              add [eax],al
0000A3DC  0000              add [eax],al
0000A3DE  0000              add [eax],al
0000A3E0  0000              add [eax],al
0000A3E2  0000              add [eax],al
0000A3E4  0000              add [eax],al
0000A3E6  0000              add [eax],al
0000A3E8  0000              add [eax],al
0000A3EA  0000              add [eax],al
0000A3EC  0000              add [eax],al
0000A3EE  0000              add [eax],al
0000A3F0  0000              add [eax],al
0000A3F2  0000              add [eax],al
0000A3F4  0000              add [eax],al
0000A3F6  0000              add [eax],al
0000A3F8  0000              add [eax],al
0000A3FA  0000              add [eax],al
0000A3FC  0000              add [eax],al
0000A3FE  0000              add [eax],al
0000A400  0000              add [eax],al
0000A402  0000              add [eax],al
0000A404  0000              add [eax],al
0000A406  0000              add [eax],al
0000A408  0000              add [eax],al
0000A40A  0000              add [eax],al
0000A40C  0000              add [eax],al
0000A40E  0000              add [eax],al
0000A410  0000              add [eax],al
0000A412  0000              add [eax],al
0000A414  0000              add [eax],al
0000A416  0000              add [eax],al
0000A418  0000              add [eax],al
0000A41A  0000              add [eax],al
0000A41C  0000              add [eax],al
0000A41E  0000              add [eax],al
0000A420  0000              add [eax],al
0000A422  0000              add [eax],al
0000A424  0000              add [eax],al
0000A426  0000              add [eax],al
0000A428  0000              add [eax],al
0000A42A  0000              add [eax],al
0000A42C  0000              add [eax],al
0000A42E  0000              add [eax],al
0000A430  0000              add [eax],al
0000A432  0000              add [eax],al
0000A434  0000              add [eax],al
0000A436  0000              add [eax],al
0000A438  0000              add [eax],al
0000A43A  0000              add [eax],al
0000A43C  0000              add [eax],al
0000A43E  0000              add [eax],al
0000A440  0000              add [eax],al
0000A442  0000              add [eax],al
0000A444  0000              add [eax],al
0000A446  0000              add [eax],al
0000A448  0000              add [eax],al
0000A44A  0000              add [eax],al
0000A44C  0000              add [eax],al
0000A44E  0000              add [eax],al
0000A450  0000              add [eax],al
0000A452  0000              add [eax],al
0000A454  0000              add [eax],al
0000A456  0000              add [eax],al
0000A458  0000              add [eax],al
0000A45A  0000              add [eax],al
0000A45C  0000              add [eax],al
0000A45E  0000              add [eax],al
0000A460  0000              add [eax],al
0000A462  0000              add [eax],al
0000A464  0000              add [eax],al
0000A466  0000              add [eax],al
0000A468  0000              add [eax],al
0000A46A  0000              add [eax],al
0000A46C  0000              add [eax],al
0000A46E  0000              add [eax],al
0000A470  0000              add [eax],al
0000A472  0000              add [eax],al
0000A474  0000              add [eax],al
0000A476  0000              add [eax],al
0000A478  0000              add [eax],al
0000A47A  0000              add [eax],al
0000A47C  0000              add [eax],al
0000A47E  0000              add [eax],al
0000A480  0000              add [eax],al
0000A482  0000              add [eax],al
0000A484  0000              add [eax],al
0000A486  0000              add [eax],al
0000A488  0000              add [eax],al
0000A48A  0000              add [eax],al
0000A48C  0000              add [eax],al
0000A48E  0000              add [eax],al
0000A490  0000              add [eax],al
0000A492  0000              add [eax],al
0000A494  0000              add [eax],al
0000A496  0000              add [eax],al
0000A498  0000              add [eax],al
0000A49A  0000              add [eax],al
0000A49C  0000              add [eax],al
0000A49E  0000              add [eax],al
0000A4A0  0000              add [eax],al
0000A4A2  0000              add [eax],al
0000A4A4  0000              add [eax],al
0000A4A6  0000              add [eax],al
0000A4A8  0000              add [eax],al
0000A4AA  0000              add [eax],al
0000A4AC  0000              add [eax],al
0000A4AE  0000              add [eax],al
0000A4B0  0000              add [eax],al
0000A4B2  0000              add [eax],al
0000A4B4  0000              add [eax],al
0000A4B6  0000              add [eax],al
0000A4B8  0000              add [eax],al
0000A4BA  0000              add [eax],al
0000A4BC  0000              add [eax],al
0000A4BE  0000              add [eax],al
0000A4C0  0000              add [eax],al
0000A4C2  0000              add [eax],al
0000A4C4  0000              add [eax],al
0000A4C6  0000              add [eax],al
0000A4C8  0000              add [eax],al
0000A4CA  0000              add [eax],al
0000A4CC  0000              add [eax],al
0000A4CE  0000              add [eax],al
0000A4D0  0000              add [eax],al
0000A4D2  0000              add [eax],al
0000A4D4  0000              add [eax],al
0000A4D6  0000              add [eax],al
0000A4D8  0000              add [eax],al
0000A4DA  0000              add [eax],al
0000A4DC  0000              add [eax],al
0000A4DE  0000              add [eax],al
0000A4E0  0000              add [eax],al
0000A4E2  0000              add [eax],al
0000A4E4  0000              add [eax],al
0000A4E6  0000              add [eax],al
0000A4E8  0000              add [eax],al
0000A4EA  0000              add [eax],al
0000A4EC  0000              add [eax],al
0000A4EE  0000              add [eax],al
0000A4F0  0000              add [eax],al
0000A4F2  0000              add [eax],al
0000A4F4  0000              add [eax],al
0000A4F6  0000              add [eax],al
0000A4F8  0000              add [eax],al
0000A4FA  0000              add [eax],al
0000A4FC  0000              add [eax],al
0000A4FE  0000              add [eax],al
0000A500  0000              add [eax],al
0000A502  0000              add [eax],al
0000A504  0000              add [eax],al
0000A506  0000              add [eax],al
0000A508  0000              add [eax],al
0000A50A  0000              add [eax],al
0000A50C  0000              add [eax],al
0000A50E  0000              add [eax],al
0000A510  0000              add [eax],al
0000A512  0000              add [eax],al
0000A514  0000              add [eax],al
0000A516  0000              add [eax],al
0000A518  0000              add [eax],al
0000A51A  0000              add [eax],al
0000A51C  0000              add [eax],al
0000A51E  0000              add [eax],al
0000A520  0000              add [eax],al
0000A522  0000              add [eax],al
0000A524  0000              add [eax],al
0000A526  0000              add [eax],al
0000A528  0000              add [eax],al
0000A52A  0000              add [eax],al
0000A52C  0000              add [eax],al
0000A52E  0000              add [eax],al
0000A530  0000              add [eax],al
0000A532  0000              add [eax],al
0000A534  0000              add [eax],al
0000A536  0000              add [eax],al
0000A538  0000              add [eax],al
0000A53A  0000              add [eax],al
0000A53C  0000              add [eax],al
0000A53E  0000              add [eax],al
0000A540  0000              add [eax],al
0000A542  0000              add [eax],al
0000A544  0000              add [eax],al
0000A546  0000              add [eax],al
0000A548  0000              add [eax],al
0000A54A  0000              add [eax],al
0000A54C  0000              add [eax],al
0000A54E  0000              add [eax],al
0000A550  0000              add [eax],al
0000A552  0000              add [eax],al
0000A554  0000              add [eax],al
0000A556  0000              add [eax],al
0000A558  0000              add [eax],al
0000A55A  0000              add [eax],al
0000A55C  0000              add [eax],al
0000A55E  0000              add [eax],al
0000A560  0000              add [eax],al
0000A562  0000              add [eax],al
0000A564  0000              add [eax],al
0000A566  0000              add [eax],al
0000A568  0000              add [eax],al
0000A56A  0000              add [eax],al
0000A56C  0000              add [eax],al
0000A56E  0000              add [eax],al
0000A570  0000              add [eax],al
0000A572  0000              add [eax],al
0000A574  0000              add [eax],al
0000A576  0000              add [eax],al
0000A578  0000              add [eax],al
0000A57A  0000              add [eax],al
0000A57C  0000              add [eax],al
0000A57E  0000              add [eax],al
0000A580  0000              add [eax],al
0000A582  0000              add [eax],al
0000A584  0000              add [eax],al
0000A586  0000              add [eax],al
0000A588  0000              add [eax],al
0000A58A  0000              add [eax],al
0000A58C  0000              add [eax],al
0000A58E  0000              add [eax],al
0000A590  0000              add [eax],al
0000A592  0000              add [eax],al
0000A594  0000              add [eax],al
0000A596  0000              add [eax],al
0000A598  0000              add [eax],al
0000A59A  0000              add [eax],al
0000A59C  0000              add [eax],al
0000A59E  0000              add [eax],al
0000A5A0  0000              add [eax],al
0000A5A2  0000              add [eax],al
0000A5A4  0000              add [eax],al
0000A5A6  0000              add [eax],al
0000A5A8  0000              add [eax],al
0000A5AA  0000              add [eax],al
0000A5AC  0000              add [eax],al
0000A5AE  0000              add [eax],al
0000A5B0  0000              add [eax],al
0000A5B2  0000              add [eax],al
0000A5B4  0000              add [eax],al
0000A5B6  0000              add [eax],al
0000A5B8  0000              add [eax],al
0000A5BA  0000              add [eax],al
0000A5BC  0000              add [eax],al
0000A5BE  0000              add [eax],al
0000A5C0  0000              add [eax],al
0000A5C2  0000              add [eax],al
0000A5C4  0000              add [eax],al
0000A5C6  0000              add [eax],al
0000A5C8  0000              add [eax],al
0000A5CA  0000              add [eax],al
0000A5CC  0000              add [eax],al
0000A5CE  0000              add [eax],al
0000A5D0  0000              add [eax],al
0000A5D2  0000              add [eax],al
0000A5D4  0000              add [eax],al
0000A5D6  0000              add [eax],al
0000A5D8  0000              add [eax],al
0000A5DA  0000              add [eax],al
0000A5DC  0000              add [eax],al
0000A5DE  0000              add [eax],al
0000A5E0  0000              add [eax],al
0000A5E2  0000              add [eax],al
0000A5E4  0000              add [eax],al
0000A5E6  0000              add [eax],al
0000A5E8  0000              add [eax],al
0000A5EA  0000              add [eax],al
0000A5EC  0000              add [eax],al
0000A5EE  0000              add [eax],al
0000A5F0  0000              add [eax],al
0000A5F2  0000              add [eax],al
0000A5F4  0000              add [eax],al
0000A5F6  0000              add [eax],al
0000A5F8  0000              add [eax],al
0000A5FA  0000              add [eax],al
0000A5FC  0000              add [eax],al
0000A5FE  0000              add [eax],al
0000A600  0000              add [eax],al
0000A602  0000              add [eax],al
0000A604  0000              add [eax],al
0000A606  0000              add [eax],al
0000A608  0000              add [eax],al
0000A60A  0000              add [eax],al
0000A60C  0000              add [eax],al
0000A60E  0000              add [eax],al
0000A610  0000              add [eax],al
0000A612  0000              add [eax],al
0000A614  0000              add [eax],al
0000A616  0000              add [eax],al
0000A618  0000              add [eax],al
0000A61A  0000              add [eax],al
0000A61C  0000              add [eax],al
0000A61E  0000              add [eax],al
0000A620  0000              add [eax],al
0000A622  0000              add [eax],al
0000A624  0000              add [eax],al
0000A626  0000              add [eax],al
0000A628  0000              add [eax],al
0000A62A  0000              add [eax],al
0000A62C  0000              add [eax],al
0000A62E  0000              add [eax],al
0000A630  0000              add [eax],al
0000A632  0000              add [eax],al
0000A634  0000              add [eax],al
0000A636  0000              add [eax],al
0000A638  0000              add [eax],al
0000A63A  0000              add [eax],al
0000A63C  0000              add [eax],al
0000A63E  0000              add [eax],al
0000A640  0000              add [eax],al
0000A642  0000              add [eax],al
0000A644  0000              add [eax],al
0000A646  0000              add [eax],al
0000A648  0000              add [eax],al
0000A64A  0000              add [eax],al
0000A64C  0000              add [eax],al
0000A64E  0000              add [eax],al
0000A650  0000              add [eax],al
0000A652  0000              add [eax],al
0000A654  0000              add [eax],al
0000A656  0000              add [eax],al
0000A658  0000              add [eax],al
0000A65A  0000              add [eax],al
0000A65C  0000              add [eax],al
0000A65E  0000              add [eax],al
0000A660  0000              add [eax],al
0000A662  0000              add [eax],al
0000A664  0000              add [eax],al
0000A666  0000              add [eax],al
0000A668  0000              add [eax],al
0000A66A  0000              add [eax],al
0000A66C  0000              add [eax],al
0000A66E  0000              add [eax],al
0000A670  0000              add [eax],al
0000A672  0000              add [eax],al
0000A674  0000              add [eax],al
0000A676  0000              add [eax],al
0000A678  0000              add [eax],al
0000A67A  0000              add [eax],al
0000A67C  0000              add [eax],al
0000A67E  0000              add [eax],al
0000A680  0000              add [eax],al
0000A682  0000              add [eax],al
0000A684  0000              add [eax],al
0000A686  0000              add [eax],al
0000A688  0000              add [eax],al
0000A68A  0000              add [eax],al
0000A68C  0000              add [eax],al
0000A68E  0000              add [eax],al
0000A690  0000              add [eax],al
0000A692  0000              add [eax],al
0000A694  0000              add [eax],al
0000A696  0000              add [eax],al
0000A698  0000              add [eax],al
0000A69A  0000              add [eax],al
0000A69C  0000              add [eax],al
0000A69E  0000              add [eax],al
0000A6A0  0000              add [eax],al
0000A6A2  0000              add [eax],al
0000A6A4  0000              add [eax],al
0000A6A6  0000              add [eax],al
0000A6A8  0000              add [eax],al
0000A6AA  0000              add [eax],al
0000A6AC  0000              add [eax],al
0000A6AE  0000              add [eax],al
0000A6B0  0000              add [eax],al
0000A6B2  0000              add [eax],al
0000A6B4  0000              add [eax],al
0000A6B6  0000              add [eax],al
0000A6B8  0000              add [eax],al
0000A6BA  0000              add [eax],al
0000A6BC  0000              add [eax],al
0000A6BE  0000              add [eax],al
0000A6C0  0000              add [eax],al
0000A6C2  0000              add [eax],al
0000A6C4  0000              add [eax],al
0000A6C6  0000              add [eax],al
0000A6C8  0000              add [eax],al
0000A6CA  0000              add [eax],al
0000A6CC  0000              add [eax],al
0000A6CE  0000              add [eax],al
0000A6D0  0000              add [eax],al
0000A6D2  0000              add [eax],al
0000A6D4  0000              add [eax],al
0000A6D6  0000              add [eax],al
0000A6D8  0000              add [eax],al
0000A6DA  0000              add [eax],al
0000A6DC  0000              add [eax],al
0000A6DE  0000              add [eax],al
0000A6E0  0000              add [eax],al
0000A6E2  0000              add [eax],al
0000A6E4  0000              add [eax],al
0000A6E6  0000              add [eax],al
0000A6E8  0000              add [eax],al
0000A6EA  0000              add [eax],al
0000A6EC  0000              add [eax],al
0000A6EE  0000              add [eax],al
0000A6F0  0000              add [eax],al
0000A6F2  0000              add [eax],al
0000A6F4  0000              add [eax],al
0000A6F6  0000              add [eax],al
0000A6F8  0000              add [eax],al
0000A6FA  0000              add [eax],al
0000A6FC  0000              add [eax],al
0000A6FE  0000              add [eax],al
0000A700  0000              add [eax],al
0000A702  0000              add [eax],al
0000A704  0000              add [eax],al
0000A706  0000              add [eax],al
0000A708  0000              add [eax],al
0000A70A  0000              add [eax],al
0000A70C  0000              add [eax],al
0000A70E  0000              add [eax],al
0000A710  0000              add [eax],al
0000A712  0000              add [eax],al
0000A714  0000              add [eax],al
0000A716  0000              add [eax],al
0000A718  0000              add [eax],al
0000A71A  0000              add [eax],al
0000A71C  0000              add [eax],al
0000A71E  0000              add [eax],al
0000A720  0000              add [eax],al
0000A722  0000              add [eax],al
0000A724  0000              add [eax],al
0000A726  0000              add [eax],al
0000A728  0000              add [eax],al
0000A72A  0000              add [eax],al
0000A72C  0000              add [eax],al
0000A72E  0000              add [eax],al
0000A730  0000              add [eax],al
0000A732  0000              add [eax],al
0000A734  0000              add [eax],al
0000A736  0000              add [eax],al
0000A738  0000              add [eax],al
0000A73A  0000              add [eax],al
0000A73C  0000              add [eax],al
0000A73E  0000              add [eax],al
0000A740  0000              add [eax],al
0000A742  0000              add [eax],al
0000A744  0000              add [eax],al
0000A746  0000              add [eax],al
0000A748  0000              add [eax],al
0000A74A  0000              add [eax],al
0000A74C  0000              add [eax],al
0000A74E  0000              add [eax],al
0000A750  0000              add [eax],al
0000A752  0000              add [eax],al
0000A754  0000              add [eax],al
0000A756  0000              add [eax],al
0000A758  0000              add [eax],al
0000A75A  0000              add [eax],al
0000A75C  0000              add [eax],al
0000A75E  0000              add [eax],al
0000A760  0000              add [eax],al
0000A762  0000              add [eax],al
0000A764  0000              add [eax],al
0000A766  0000              add [eax],al
0000A768  0000              add [eax],al
0000A76A  0000              add [eax],al
0000A76C  0000              add [eax],al
0000A76E  0000              add [eax],al
0000A770  0000              add [eax],al
0000A772  0000              add [eax],al
0000A774  0000              add [eax],al
0000A776  0000              add [eax],al
0000A778  0000              add [eax],al
0000A77A  0000              add [eax],al
0000A77C  0000              add [eax],al
0000A77E  0000              add [eax],al
0000A780  0000              add [eax],al
0000A782  0000              add [eax],al
0000A784  0000              add [eax],al
0000A786  0000              add [eax],al
0000A788  0000              add [eax],al
0000A78A  0000              add [eax],al
0000A78C  0000              add [eax],al
0000A78E  0000              add [eax],al
0000A790  0000              add [eax],al
0000A792  0000              add [eax],al
0000A794  0000              add [eax],al
0000A796  0000              add [eax],al
0000A798  0000              add [eax],al
0000A79A  0000              add [eax],al
0000A79C  0000              add [eax],al
0000A79E  0000              add [eax],al
0000A7A0  0000              add [eax],al
0000A7A2  0000              add [eax],al
0000A7A4  0000              add [eax],al
0000A7A6  0000              add [eax],al
0000A7A8  0000              add [eax],al
0000A7AA  0000              add [eax],al
0000A7AC  0000              add [eax],al
0000A7AE  0000              add [eax],al
0000A7B0  0000              add [eax],al
0000A7B2  0000              add [eax],al
0000A7B4  0000              add [eax],al
0000A7B6  0000              add [eax],al
0000A7B8  0000              add [eax],al
0000A7BA  0000              add [eax],al
0000A7BC  0000              add [eax],al
0000A7BE  0000              add [eax],al
0000A7C0  0000              add [eax],al
0000A7C2  0000              add [eax],al
0000A7C4  0000              add [eax],al
0000A7C6  0000              add [eax],al
0000A7C8  0000              add [eax],al
0000A7CA  0000              add [eax],al
0000A7CC  0000              add [eax],al
0000A7CE  0000              add [eax],al
0000A7D0  0000              add [eax],al
0000A7D2  0000              add [eax],al
0000A7D4  0000              add [eax],al
0000A7D6  0000              add [eax],al
0000A7D8  0000              add [eax],al
0000A7DA  0000              add [eax],al
0000A7DC  0000              add [eax],al
0000A7DE  0000              add [eax],al
0000A7E0  0000              add [eax],al
0000A7E2  0000              add [eax],al
0000A7E4  0000              add [eax],al
0000A7E6  0000              add [eax],al
0000A7E8  0000              add [eax],al
0000A7EA  0000              add [eax],al
0000A7EC  0000              add [eax],al
0000A7EE  0000              add [eax],al
0000A7F0  0000              add [eax],al
0000A7F2  0000              add [eax],al
0000A7F4  0000              add [eax],al
0000A7F6  0000              add [eax],al
0000A7F8  0000              add [eax],al
0000A7FA  0000              add [eax],al
0000A7FC  0000              add [eax],al
0000A7FE  0000              add [eax],al
0000A800  0000              add [eax],al
0000A802  0000              add [eax],al
0000A804  0000              add [eax],al
0000A806  0000              add [eax],al
0000A808  0000              add [eax],al
0000A80A  0000              add [eax],al
0000A80C  0000              add [eax],al
0000A80E  0000              add [eax],al
0000A810  0000              add [eax],al
0000A812  0000              add [eax],al
0000A814  0000              add [eax],al
0000A816  0000              add [eax],al
0000A818  0000              add [eax],al
0000A81A  0000              add [eax],al
0000A81C  0000              add [eax],al
0000A81E  0000              add [eax],al
0000A820  0000              add [eax],al
0000A822  0000              add [eax],al
0000A824  0000              add [eax],al
0000A826  0000              add [eax],al
0000A828  0000              add [eax],al
0000A82A  0000              add [eax],al
0000A82C  0000              add [eax],al
0000A82E  0000              add [eax],al
0000A830  0000              add [eax],al
0000A832  0000              add [eax],al
0000A834  0000              add [eax],al
0000A836  0000              add [eax],al
0000A838  0000              add [eax],al
0000A83A  0000              add [eax],al
0000A83C  0000              add [eax],al
0000A83E  0000              add [eax],al
0000A840  0000              add [eax],al
0000A842  0000              add [eax],al
0000A844  0000              add [eax],al
0000A846  0000              add [eax],al
0000A848  0000              add [eax],al
0000A84A  0000              add [eax],al
0000A84C  0000              add [eax],al
0000A84E  0000              add [eax],al
0000A850  0000              add [eax],al
0000A852  0000              add [eax],al
0000A854  0000              add [eax],al
0000A856  0000              add [eax],al
0000A858  0000              add [eax],al
0000A85A  0000              add [eax],al
0000A85C  0000              add [eax],al
0000A85E  0000              add [eax],al
0000A860  0000              add [eax],al
0000A862  0000              add [eax],al
0000A864  0000              add [eax],al
0000A866  0000              add [eax],al
0000A868  0000              add [eax],al
0000A86A  0000              add [eax],al
0000A86C  0000              add [eax],al
0000A86E  0000              add [eax],al
0000A870  0000              add [eax],al
0000A872  0000              add [eax],al
0000A874  0000              add [eax],al
0000A876  0000              add [eax],al
0000A878  0000              add [eax],al
0000A87A  0000              add [eax],al
0000A87C  0000              add [eax],al
0000A87E  0000              add [eax],al
0000A880  0000              add [eax],al
0000A882  0000              add [eax],al
0000A884  0000              add [eax],al
0000A886  0000              add [eax],al
0000A888  0000              add [eax],al
0000A88A  0000              add [eax],al
0000A88C  0000              add [eax],al
0000A88E  0000              add [eax],al
0000A890  0000              add [eax],al
0000A892  0000              add [eax],al
0000A894  0000              add [eax],al
0000A896  0000              add [eax],al
0000A898  0000              add [eax],al
0000A89A  0000              add [eax],al
0000A89C  0000              add [eax],al
0000A89E  0000              add [eax],al
0000A8A0  0000              add [eax],al
0000A8A2  0000              add [eax],al
0000A8A4  0000              add [eax],al
0000A8A6  0000              add [eax],al
0000A8A8  0000              add [eax],al
0000A8AA  0000              add [eax],al
0000A8AC  0000              add [eax],al
0000A8AE  0000              add [eax],al
0000A8B0  0000              add [eax],al
0000A8B2  0000              add [eax],al
0000A8B4  0000              add [eax],al
0000A8B6  0000              add [eax],al
0000A8B8  0000              add [eax],al
0000A8BA  0000              add [eax],al
0000A8BC  0000              add [eax],al
0000A8BE  0000              add [eax],al
0000A8C0  0000              add [eax],al
0000A8C2  0000              add [eax],al
0000A8C4  0000              add [eax],al
0000A8C6  0000              add [eax],al
0000A8C8  0000              add [eax],al
0000A8CA  0000              add [eax],al
0000A8CC  0000              add [eax],al
0000A8CE  0000              add [eax],al
0000A8D0  0000              add [eax],al
0000A8D2  0000              add [eax],al
0000A8D4  0000              add [eax],al
0000A8D6  0000              add [eax],al
0000A8D8  0000              add [eax],al
0000A8DA  0000              add [eax],al
0000A8DC  0000              add [eax],al
0000A8DE  0000              add [eax],al
0000A8E0  0000              add [eax],al
0000A8E2  0000              add [eax],al
0000A8E4  0000              add [eax],al
0000A8E6  0000              add [eax],al
0000A8E8  0000              add [eax],al
0000A8EA  0000              add [eax],al
0000A8EC  0000              add [eax],al
0000A8EE  0000              add [eax],al
0000A8F0  0000              add [eax],al
0000A8F2  0000              add [eax],al
0000A8F4  0000              add [eax],al
0000A8F6  0000              add [eax],al
0000A8F8  0000              add [eax],al
0000A8FA  0000              add [eax],al
0000A8FC  0000              add [eax],al
0000A8FE  0000              add [eax],al
0000A900  0000              add [eax],al
0000A902  0000              add [eax],al
0000A904  0000              add [eax],al
0000A906  0000              add [eax],al
0000A908  0000              add [eax],al
0000A90A  0000              add [eax],al
0000A90C  0000              add [eax],al
0000A90E  0000              add [eax],al
0000A910  0000              add [eax],al
0000A912  0000              add [eax],al
0000A914  0000              add [eax],al
0000A916  0000              add [eax],al
0000A918  0000              add [eax],al
0000A91A  0000              add [eax],al
0000A91C  0000              add [eax],al
0000A91E  0000              add [eax],al
0000A920  0000              add [eax],al
0000A922  0000              add [eax],al
0000A924  0000              add [eax],al
0000A926  0000              add [eax],al
0000A928  0000              add [eax],al
0000A92A  0000              add [eax],al
0000A92C  0000              add [eax],al
0000A92E  0000              add [eax],al
0000A930  0000              add [eax],al
0000A932  0000              add [eax],al
0000A934  0000              add [eax],al
0000A936  0000              add [eax],al
0000A938  0000              add [eax],al
0000A93A  0000              add [eax],al
0000A93C  0000              add [eax],al
0000A93E  0000              add [eax],al
0000A940  0000              add [eax],al
0000A942  0000              add [eax],al
0000A944  0000              add [eax],al
0000A946  0000              add [eax],al
0000A948  0000              add [eax],al
0000A94A  0000              add [eax],al
0000A94C  0000              add [eax],al
0000A94E  0000              add [eax],al
0000A950  0000              add [eax],al
0000A952  0000              add [eax],al
0000A954  0000              add [eax],al
0000A956  0000              add [eax],al
0000A958  0000              add [eax],al
0000A95A  0000              add [eax],al
0000A95C  0000              add [eax],al
0000A95E  0000              add [eax],al
0000A960  0000              add [eax],al
0000A962  0000              add [eax],al
0000A964  0000              add [eax],al
0000A966  0000              add [eax],al
0000A968  0000              add [eax],al
0000A96A  0000              add [eax],al
0000A96C  0000              add [eax],al
0000A96E  0000              add [eax],al
0000A970  0000              add [eax],al
0000A972  0000              add [eax],al
0000A974  0000              add [eax],al
0000A976  0000              add [eax],al
0000A978  0000              add [eax],al
0000A97A  0000              add [eax],al
0000A97C  0000              add [eax],al
0000A97E  0000              add [eax],al
0000A980  0000              add [eax],al
0000A982  0000              add [eax],al
0000A984  0000              add [eax],al
0000A986  0000              add [eax],al
0000A988  0000              add [eax],al
0000A98A  0000              add [eax],al
0000A98C  0000              add [eax],al
0000A98E  0000              add [eax],al
0000A990  0000              add [eax],al
0000A992  0000              add [eax],al
0000A994  0000              add [eax],al
0000A996  0000              add [eax],al
0000A998  0000              add [eax],al
0000A99A  0000              add [eax],al
0000A99C  0000              add [eax],al
0000A99E  0000              add [eax],al
0000A9A0  0000              add [eax],al
0000A9A2  0000              add [eax],al
0000A9A4  0000              add [eax],al
0000A9A6  0000              add [eax],al
0000A9A8  0000              add [eax],al
0000A9AA  0000              add [eax],al
0000A9AC  0000              add [eax],al
0000A9AE  0000              add [eax],al
0000A9B0  0000              add [eax],al
0000A9B2  0000              add [eax],al
0000A9B4  0000              add [eax],al
0000A9B6  0000              add [eax],al
0000A9B8  0000              add [eax],al
0000A9BA  0000              add [eax],al
0000A9BC  0000              add [eax],al
0000A9BE  0000              add [eax],al
0000A9C0  0000              add [eax],al
0000A9C2  0000              add [eax],al
0000A9C4  0000              add [eax],al
0000A9C6  0000              add [eax],al
0000A9C8  0000              add [eax],al
0000A9CA  0000              add [eax],al
0000A9CC  0000              add [eax],al
0000A9CE  0000              add [eax],al
0000A9D0  0000              add [eax],al
0000A9D2  0000              add [eax],al
0000A9D4  0000              add [eax],al
0000A9D6  0000              add [eax],al
0000A9D8  0000              add [eax],al
0000A9DA  0000              add [eax],al
0000A9DC  0000              add [eax],al
0000A9DE  0000              add [eax],al
0000A9E0  0000              add [eax],al
0000A9E2  0000              add [eax],al
0000A9E4  0000              add [eax],al
0000A9E6  0000              add [eax],al
0000A9E8  0000              add [eax],al
0000A9EA  0000              add [eax],al
0000A9EC  0000              add [eax],al
0000A9EE  0000              add [eax],al
0000A9F0  0000              add [eax],al
0000A9F2  0000              add [eax],al
0000A9F4  0000              add [eax],al
0000A9F6  0000              add [eax],al
0000A9F8  0000              add [eax],al
0000A9FA  0000              add [eax],al
0000A9FC  0000              add [eax],al
0000A9FE  0000              add [eax],al
0000AA00  0000              add [eax],al
0000AA02  0000              add [eax],al
0000AA04  0000              add [eax],al
0000AA06  0000              add [eax],al
0000AA08  0000              add [eax],al
0000AA0A  0000              add [eax],al
0000AA0C  0000              add [eax],al
0000AA0E  0000              add [eax],al
0000AA10  0000              add [eax],al
0000AA12  0000              add [eax],al
0000AA14  0000              add [eax],al
0000AA16  0000              add [eax],al
0000AA18  0000              add [eax],al
0000AA1A  0000              add [eax],al
0000AA1C  0000              add [eax],al
0000AA1E  0000              add [eax],al
0000AA20  0000              add [eax],al
0000AA22  0000              add [eax],al
0000AA24  0000              add [eax],al
0000AA26  0000              add [eax],al
0000AA28  0000              add [eax],al
0000AA2A  0000              add [eax],al
0000AA2C  0000              add [eax],al
0000AA2E  0000              add [eax],al
0000AA30  0000              add [eax],al
0000AA32  0000              add [eax],al
0000AA34  0000              add [eax],al
0000AA36  0000              add [eax],al
0000AA38  0000              add [eax],al
0000AA3A  0000              add [eax],al
0000AA3C  0000              add [eax],al
0000AA3E  0000              add [eax],al
0000AA40  0000              add [eax],al
0000AA42  0000              add [eax],al
0000AA44  0000              add [eax],al
0000AA46  0000              add [eax],al
0000AA48  0000              add [eax],al
0000AA4A  0000              add [eax],al
0000AA4C  0000              add [eax],al
0000AA4E  0000              add [eax],al
0000AA50  0000              add [eax],al
0000AA52  0000              add [eax],al
0000AA54  0000              add [eax],al
0000AA56  0000              add [eax],al
0000AA58  0000              add [eax],al
0000AA5A  0000              add [eax],al
0000AA5C  0000              add [eax],al
0000AA5E  0000              add [eax],al
0000AA60  0000              add [eax],al
0000AA62  0000              add [eax],al
0000AA64  0000              add [eax],al
0000AA66  0000              add [eax],al
0000AA68  0000              add [eax],al
0000AA6A  0000              add [eax],al
0000AA6C  0000              add [eax],al
0000AA6E  0000              add [eax],al
0000AA70  0000              add [eax],al
0000AA72  0000              add [eax],al
0000AA74  0000              add [eax],al
0000AA76  0000              add [eax],al
0000AA78  0000              add [eax],al
0000AA7A  0000              add [eax],al
0000AA7C  0000              add [eax],al
0000AA7E  0000              add [eax],al
0000AA80  0000              add [eax],al
0000AA82  0000              add [eax],al
0000AA84  0000              add [eax],al
0000AA86  0000              add [eax],al
0000AA88  0000              add [eax],al
0000AA8A  0000              add [eax],al
0000AA8C  0000              add [eax],al
0000AA8E  0000              add [eax],al
0000AA90  0000              add [eax],al
0000AA92  0000              add [eax],al
0000AA94  0000              add [eax],al
0000AA96  0000              add [eax],al
0000AA98  0000              add [eax],al
0000AA9A  0000              add [eax],al
0000AA9C  0000              add [eax],al
0000AA9E  0000              add [eax],al
0000AAA0  0000              add [eax],al
0000AAA2  0000              add [eax],al
0000AAA4  0000              add [eax],al
0000AAA6  0000              add [eax],al
0000AAA8  0000              add [eax],al
0000AAAA  0000              add [eax],al
0000AAAC  0000              add [eax],al
0000AAAE  0000              add [eax],al
0000AAB0  0000              add [eax],al
0000AAB2  0000              add [eax],al
0000AAB4  0000              add [eax],al
0000AAB6  0000              add [eax],al
0000AAB8  0000              add [eax],al
0000AABA  0000              add [eax],al
0000AABC  0000              add [eax],al
0000AABE  0000              add [eax],al
0000AAC0  0000              add [eax],al
0000AAC2  0000              add [eax],al
0000AAC4  0000              add [eax],al
0000AAC6  0000              add [eax],al
0000AAC8  0000              add [eax],al
0000AACA  0000              add [eax],al
0000AACC  0000              add [eax],al
0000AACE  0000              add [eax],al
0000AAD0  0000              add [eax],al
0000AAD2  0000              add [eax],al
0000AAD4  0000              add [eax],al
0000AAD6  0000              add [eax],al
0000AAD8  0000              add [eax],al
0000AADA  0000              add [eax],al
0000AADC  0000              add [eax],al
0000AADE  0000              add [eax],al
0000AAE0  0000              add [eax],al
0000AAE2  0000              add [eax],al
0000AAE4  0000              add [eax],al
0000AAE6  0000              add [eax],al
0000AAE8  0000              add [eax],al
0000AAEA  0000              add [eax],al
0000AAEC  0000              add [eax],al
0000AAEE  0000              add [eax],al
0000AAF0  0000              add [eax],al
0000AAF2  0000              add [eax],al
0000AAF4  0000              add [eax],al
0000AAF6  0000              add [eax],al
0000AAF8  0000              add [eax],al
0000AAFA  0000              add [eax],al
0000AAFC  0000              add [eax],al
0000AAFE  0000              add [eax],al
0000AB00  0000              add [eax],al
0000AB02  0000              add [eax],al
0000AB04  0000              add [eax],al
0000AB06  0000              add [eax],al
0000AB08  0000              add [eax],al
0000AB0A  0000              add [eax],al
0000AB0C  0000              add [eax],al
0000AB0E  0000              add [eax],al
0000AB10  0000              add [eax],al
0000AB12  0000              add [eax],al
0000AB14  0000              add [eax],al
0000AB16  0000              add [eax],al
0000AB18  0000              add [eax],al
0000AB1A  0000              add [eax],al
0000AB1C  0000              add [eax],al
0000AB1E  0000              add [eax],al
0000AB20  0000              add [eax],al
0000AB22  0000              add [eax],al
0000AB24  0000              add [eax],al
0000AB26  0000              add [eax],al
0000AB28  0000              add [eax],al
0000AB2A  0000              add [eax],al
0000AB2C  0000              add [eax],al
0000AB2E  0000              add [eax],al
0000AB30  0000              add [eax],al
0000AB32  0000              add [eax],al
0000AB34  0000              add [eax],al
0000AB36  0000              add [eax],al
0000AB38  0000              add [eax],al
0000AB3A  0000              add [eax],al
0000AB3C  0000              add [eax],al
0000AB3E  0000              add [eax],al
0000AB40  0000              add [eax],al
0000AB42  0000              add [eax],al
0000AB44  0000              add [eax],al
0000AB46  0000              add [eax],al
0000AB48  0000              add [eax],al
0000AB4A  0000              add [eax],al
0000AB4C  0000              add [eax],al
0000AB4E  0000              add [eax],al
0000AB50  0000              add [eax],al
0000AB52  0000              add [eax],al
0000AB54  0000              add [eax],al
0000AB56  0000              add [eax],al
0000AB58  0000              add [eax],al
0000AB5A  0000              add [eax],al
0000AB5C  0000              add [eax],al
0000AB5E  0000              add [eax],al
0000AB60  0000              add [eax],al
0000AB62  0000              add [eax],al
0000AB64  0000              add [eax],al
0000AB66  0000              add [eax],al
0000AB68  0000              add [eax],al
0000AB6A  0000              add [eax],al
0000AB6C  0000              add [eax],al
0000AB6E  0000              add [eax],al
0000AB70  0000              add [eax],al
0000AB72  0000              add [eax],al
0000AB74  0000              add [eax],al
0000AB76  0000              add [eax],al
0000AB78  0000              add [eax],al
0000AB7A  0000              add [eax],al
0000AB7C  0000              add [eax],al
0000AB7E  0000              add [eax],al
0000AB80  0000              add [eax],al
0000AB82  0000              add [eax],al
0000AB84  0000              add [eax],al
0000AB86  0000              add [eax],al
0000AB88  0000              add [eax],al
0000AB8A  0000              add [eax],al
0000AB8C  0000              add [eax],al
0000AB8E  0000              add [eax],al
0000AB90  0000              add [eax],al
0000AB92  0000              add [eax],al
0000AB94  0000              add [eax],al
0000AB96  0000              add [eax],al
0000AB98  0000              add [eax],al
0000AB9A  0000              add [eax],al
0000AB9C  0000              add [eax],al
0000AB9E  0000              add [eax],al
0000ABA0  0000              add [eax],al
0000ABA2  0000              add [eax],al
0000ABA4  0000              add [eax],al
0000ABA6  0000              add [eax],al
0000ABA8  0000              add [eax],al
0000ABAA  0000              add [eax],al
0000ABAC  0000              add [eax],al
0000ABAE  0000              add [eax],al
0000ABB0  0000              add [eax],al
0000ABB2  0000              add [eax],al
0000ABB4  0000              add [eax],al
0000ABB6  0000              add [eax],al
0000ABB8  0000              add [eax],al
0000ABBA  0000              add [eax],al
0000ABBC  0000              add [eax],al
0000ABBE  0000              add [eax],al
0000ABC0  0000              add [eax],al
0000ABC2  0000              add [eax],al
0000ABC4  0000              add [eax],al
0000ABC6  0000              add [eax],al
0000ABC8  0000              add [eax],al
0000ABCA  0000              add [eax],al
0000ABCC  0000              add [eax],al
0000ABCE  0000              add [eax],al
0000ABD0  0000              add [eax],al
0000ABD2  0000              add [eax],al
0000ABD4  0000              add [eax],al
0000ABD6  0000              add [eax],al
0000ABD8  0000              add [eax],al
0000ABDA  0000              add [eax],al
0000ABDC  0000              add [eax],al
0000ABDE  0000              add [eax],al
0000ABE0  0000              add [eax],al
0000ABE2  0000              add [eax],al
0000ABE4  0000              add [eax],al
0000ABE6  0000              add [eax],al
0000ABE8  0000              add [eax],al
0000ABEA  0000              add [eax],al
0000ABEC  0000              add [eax],al
0000ABEE  0000              add [eax],al
0000ABF0  0000              add [eax],al
0000ABF2  0000              add [eax],al
0000ABF4  0000              add [eax],al
0000ABF6  0000              add [eax],al
0000ABF8  0000              add [eax],al
0000ABFA  0000              add [eax],al
0000ABFC  0000              add [eax],al
0000ABFE  0000              add [eax],al
0000AC00  0000              add [eax],al
0000AC02  0000              add [eax],al
0000AC04  0000              add [eax],al
0000AC06  0000              add [eax],al
0000AC08  0000              add [eax],al
0000AC0A  0000              add [eax],al
0000AC0C  0000              add [eax],al
0000AC0E  0000              add [eax],al
0000AC10  0000              add [eax],al
0000AC12  0000              add [eax],al
0000AC14  0000              add [eax],al
0000AC16  0000              add [eax],al
0000AC18  0000              add [eax],al
0000AC1A  0000              add [eax],al
0000AC1C  0000              add [eax],al
0000AC1E  0000              add [eax],al
0000AC20  0000              add [eax],al
0000AC22  0000              add [eax],al
0000AC24  0000              add [eax],al
0000AC26  0000              add [eax],al
0000AC28  0000              add [eax],al
0000AC2A  0000              add [eax],al
0000AC2C  0000              add [eax],al
0000AC2E  0000              add [eax],al
0000AC30  0000              add [eax],al
0000AC32  0000              add [eax],al
0000AC34  0000              add [eax],al
0000AC36  0000              add [eax],al
0000AC38  0000              add [eax],al
0000AC3A  0000              add [eax],al
0000AC3C  0000              add [eax],al
0000AC3E  0000              add [eax],al
0000AC40  0000              add [eax],al
0000AC42  0000              add [eax],al
0000AC44  0000              add [eax],al
0000AC46  0000              add [eax],al
0000AC48  0000              add [eax],al
0000AC4A  0000              add [eax],al
0000AC4C  0000              add [eax],al
0000AC4E  0000              add [eax],al
0000AC50  0000              add [eax],al
0000AC52  0000              add [eax],al
0000AC54  0000              add [eax],al
0000AC56  0000              add [eax],al
0000AC58  0000              add [eax],al
0000AC5A  0000              add [eax],al
0000AC5C  0000              add [eax],al
0000AC5E  0000              add [eax],al
0000AC60  0000              add [eax],al
0000AC62  0000              add [eax],al
0000AC64  0000              add [eax],al
0000AC66  0000              add [eax],al
0000AC68  0000              add [eax],al
0000AC6A  0000              add [eax],al
0000AC6C  0000              add [eax],al
0000AC6E  0000              add [eax],al
0000AC70  0000              add [eax],al
0000AC72  0000              add [eax],al
0000AC74  0000              add [eax],al
0000AC76  0000              add [eax],al
0000AC78  0000              add [eax],al
0000AC7A  0000              add [eax],al
0000AC7C  0000              add [eax],al
0000AC7E  0000              add [eax],al
0000AC80  0000              add [eax],al
0000AC82  0000              add [eax],al
0000AC84  0000              add [eax],al
0000AC86  0000              add [eax],al
0000AC88  0000              add [eax],al
0000AC8A  0000              add [eax],al
0000AC8C  0000              add [eax],al
0000AC8E  0000              add [eax],al
0000AC90  0000              add [eax],al
0000AC92  0000              add [eax],al
0000AC94  0000              add [eax],al
0000AC96  0000              add [eax],al
0000AC98  0000              add [eax],al
0000AC9A  0000              add [eax],al
0000AC9C  0000              add [eax],al
0000AC9E  0000              add [eax],al
0000ACA0  0000              add [eax],al
0000ACA2  0000              add [eax],al
0000ACA4  0000              add [eax],al
0000ACA6  0000              add [eax],al
0000ACA8  0000              add [eax],al
0000ACAA  0000              add [eax],al
0000ACAC  0000              add [eax],al
0000ACAE  0000              add [eax],al
0000ACB0  0000              add [eax],al
0000ACB2  0000              add [eax],al
0000ACB4  0000              add [eax],al
0000ACB6  0000              add [eax],al
0000ACB8  0000              add [eax],al
0000ACBA  0000              add [eax],al
0000ACBC  0000              add [eax],al
0000ACBE  0000              add [eax],al
0000ACC0  0000              add [eax],al
0000ACC2  0000              add [eax],al
0000ACC4  0000              add [eax],al
0000ACC6  0000              add [eax],al
0000ACC8  0000              add [eax],al
0000ACCA  0000              add [eax],al
0000ACCC  0000              add [eax],al
0000ACCE  0000              add [eax],al
0000ACD0  0000              add [eax],al
0000ACD2  0000              add [eax],al
0000ACD4  0000              add [eax],al
0000ACD6  0000              add [eax],al
0000ACD8  0000              add [eax],al
0000ACDA  0000              add [eax],al
0000ACDC  0000              add [eax],al
0000ACDE  0000              add [eax],al
0000ACE0  0000              add [eax],al
0000ACE2  0000              add [eax],al
0000ACE4  0000              add [eax],al
0000ACE6  0000              add [eax],al
0000ACE8  0000              add [eax],al
0000ACEA  0000              add [eax],al
0000ACEC  0000              add [eax],al
0000ACEE  0000              add [eax],al
0000ACF0  0000              add [eax],al
0000ACF2  0000              add [eax],al
0000ACF4  0000              add [eax],al
0000ACF6  0000              add [eax],al
0000ACF8  0000              add [eax],al
0000ACFA  0000              add [eax],al
0000ACFC  0000              add [eax],al
0000ACFE  0000              add [eax],al
0000AD00  0000              add [eax],al
0000AD02  0000              add [eax],al
0000AD04  0000              add [eax],al
0000AD06  0000              add [eax],al
0000AD08  0000              add [eax],al
0000AD0A  0000              add [eax],al
0000AD0C  0000              add [eax],al
0000AD0E  0000              add [eax],al
0000AD10  0000              add [eax],al
0000AD12  0000              add [eax],al
0000AD14  0000              add [eax],al
0000AD16  0000              add [eax],al
0000AD18  0000              add [eax],al
0000AD1A  0000              add [eax],al
0000AD1C  0000              add [eax],al
0000AD1E  0000              add [eax],al
0000AD20  0000              add [eax],al
0000AD22  0000              add [eax],al
0000AD24  0000              add [eax],al
0000AD26  0000              add [eax],al
0000AD28  0000              add [eax],al
0000AD2A  0000              add [eax],al
0000AD2C  0000              add [eax],al
0000AD2E  0000              add [eax],al
0000AD30  0000              add [eax],al
0000AD32  0000              add [eax],al
0000AD34  0000              add [eax],al
0000AD36  0000              add [eax],al
0000AD38  0000              add [eax],al
0000AD3A  0000              add [eax],al
0000AD3C  0000              add [eax],al
0000AD3E  0000              add [eax],al
0000AD40  0000              add [eax],al
0000AD42  0000              add [eax],al
0000AD44  0000              add [eax],al
0000AD46  0000              add [eax],al
0000AD48  0000              add [eax],al
0000AD4A  0000              add [eax],al
0000AD4C  0000              add [eax],al
0000AD4E  0000              add [eax],al
0000AD50  0000              add [eax],al
0000AD52  0000              add [eax],al
0000AD54  0000              add [eax],al
0000AD56  0000              add [eax],al
0000AD58  0000              add [eax],al
0000AD5A  0000              add [eax],al
0000AD5C  0000              add [eax],al
0000AD5E  0000              add [eax],al
0000AD60  0000              add [eax],al
0000AD62  0000              add [eax],al
0000AD64  0000              add [eax],al
0000AD66  0000              add [eax],al
0000AD68  0000              add [eax],al
0000AD6A  0000              add [eax],al
0000AD6C  0000              add [eax],al
0000AD6E  0000              add [eax],al
0000AD70  0000              add [eax],al
0000AD72  0000              add [eax],al
0000AD74  0000              add [eax],al
0000AD76  0000              add [eax],al
0000AD78  0000              add [eax],al
0000AD7A  0000              add [eax],al
0000AD7C  0000              add [eax],al
0000AD7E  0000              add [eax],al
0000AD80  0000              add [eax],al
0000AD82  0000              add [eax],al
0000AD84  0000              add [eax],al
0000AD86  0000              add [eax],al
0000AD88  0000              add [eax],al
0000AD8A  0000              add [eax],al
0000AD8C  0000              add [eax],al
0000AD8E  0000              add [eax],al
0000AD90  0000              add [eax],al
0000AD92  0000              add [eax],al
0000AD94  0000              add [eax],al
0000AD96  0000              add [eax],al
0000AD98  0000              add [eax],al
0000AD9A  0000              add [eax],al
0000AD9C  0000              add [eax],al
0000AD9E  0000              add [eax],al
0000ADA0  0000              add [eax],al
0000ADA2  0000              add [eax],al
0000ADA4  0000              add [eax],al
0000ADA6  0000              add [eax],al
0000ADA8  0000              add [eax],al
0000ADAA  0000              add [eax],al
0000ADAC  0000              add [eax],al
0000ADAE  0000              add [eax],al
0000ADB0  0000              add [eax],al
0000ADB2  0000              add [eax],al
0000ADB4  0000              add [eax],al
0000ADB6  0000              add [eax],al
0000ADB8  0000              add [eax],al
0000ADBA  0000              add [eax],al
0000ADBC  0000              add [eax],al
0000ADBE  0000              add [eax],al
0000ADC0  0000              add [eax],al
0000ADC2  0000              add [eax],al
0000ADC4  0000              add [eax],al
0000ADC6  0000              add [eax],al
0000ADC8  0000              add [eax],al
0000ADCA  0000              add [eax],al
0000ADCC  0000              add [eax],al
0000ADCE  0000              add [eax],al
0000ADD0  0000              add [eax],al
0000ADD2  0000              add [eax],al
0000ADD4  0000              add [eax],al
0000ADD6  0000              add [eax],al
0000ADD8  0000              add [eax],al
0000ADDA  0000              add [eax],al
0000ADDC  0000              add [eax],al
0000ADDE  0000              add [eax],al
0000ADE0  0000              add [eax],al
0000ADE2  0000              add [eax],al
0000ADE4  0000              add [eax],al
0000ADE6  0000              add [eax],al
0000ADE8  0000              add [eax],al
0000ADEA  0000              add [eax],al
0000ADEC  0000              add [eax],al
0000ADEE  0000              add [eax],al
0000ADF0  0000              add [eax],al
0000ADF2  0000              add [eax],al
0000ADF4  0000              add [eax],al
0000ADF6  0000              add [eax],al
0000ADF8  0000              add [eax],al
0000ADFA  0000              add [eax],al
0000ADFC  0000              add [eax],al
0000ADFE  0000              add [eax],al
0000AE00  0000              add [eax],al
0000AE02  0000              add [eax],al
0000AE04  0000              add [eax],al
0000AE06  0000              add [eax],al
0000AE08  0000              add [eax],al
0000AE0A  0000              add [eax],al
0000AE0C  0000              add [eax],al
0000AE0E  0000              add [eax],al
0000AE10  0000              add [eax],al
0000AE12  0000              add [eax],al
0000AE14  0000              add [eax],al
0000AE16  0000              add [eax],al
0000AE18  0000              add [eax],al
0000AE1A  0000              add [eax],al
0000AE1C  0000              add [eax],al
0000AE1E  0000              add [eax],al
0000AE20  0000              add [eax],al
0000AE22  0000              add [eax],al
0000AE24  0000              add [eax],al
0000AE26  0000              add [eax],al
0000AE28  0000              add [eax],al
0000AE2A  0000              add [eax],al
0000AE2C  0000              add [eax],al
0000AE2E  0000              add [eax],al
0000AE30  0000              add [eax],al
0000AE32  0000              add [eax],al
0000AE34  0000              add [eax],al
0000AE36  0000              add [eax],al
0000AE38  0000              add [eax],al
0000AE3A  0000              add [eax],al
0000AE3C  0000              add [eax],al
0000AE3E  0000              add [eax],al
0000AE40  0000              add [eax],al
0000AE42  0000              add [eax],al
0000AE44  0000              add [eax],al
0000AE46  0000              add [eax],al
0000AE48  0000              add [eax],al
0000AE4A  0000              add [eax],al
0000AE4C  0000              add [eax],al
0000AE4E  0000              add [eax],al
0000AE50  0000              add [eax],al
0000AE52  0000              add [eax],al
0000AE54  0000              add [eax],al
0000AE56  0000              add [eax],al
0000AE58  0000              add [eax],al
0000AE5A  0000              add [eax],al
0000AE5C  0000              add [eax],al
0000AE5E  0000              add [eax],al
0000AE60  0000              add [eax],al
0000AE62  0000              add [eax],al
0000AE64  0000              add [eax],al
0000AE66  0000              add [eax],al
0000AE68  0000              add [eax],al
0000AE6A  0000              add [eax],al
0000AE6C  0000              add [eax],al
0000AE6E  0000              add [eax],al
0000AE70  0000              add [eax],al
0000AE72  0000              add [eax],al
0000AE74  0000              add [eax],al
0000AE76  0000              add [eax],al
0000AE78  0000              add [eax],al
0000AE7A  0000              add [eax],al
0000AE7C  0000              add [eax],al
0000AE7E  0000              add [eax],al
0000AE80  0000              add [eax],al
0000AE82  0000              add [eax],al
0000AE84  0000              add [eax],al
0000AE86  0000              add [eax],al
0000AE88  0000              add [eax],al
0000AE8A  0000              add [eax],al
0000AE8C  0000              add [eax],al
0000AE8E  0000              add [eax],al
0000AE90  0000              add [eax],al
0000AE92  0000              add [eax],al
0000AE94  0000              add [eax],al
0000AE96  0000              add [eax],al
0000AE98  0000              add [eax],al
0000AE9A  0000              add [eax],al
0000AE9C  0000              add [eax],al
0000AE9E  0000              add [eax],al
0000AEA0  0000              add [eax],al
0000AEA2  0000              add [eax],al
0000AEA4  0000              add [eax],al
0000AEA6  0000              add [eax],al
0000AEA8  0000              add [eax],al
0000AEAA  0000              add [eax],al
0000AEAC  0000              add [eax],al
0000AEAE  0000              add [eax],al
0000AEB0  0000              add [eax],al
0000AEB2  0000              add [eax],al
0000AEB4  0000              add [eax],al
0000AEB6  0000              add [eax],al
0000AEB8  0000              add [eax],al
0000AEBA  0000              add [eax],al
0000AEBC  0000              add [eax],al
0000AEBE  0000              add [eax],al
0000AEC0  0000              add [eax],al
0000AEC2  0000              add [eax],al
0000AEC4  0000              add [eax],al
0000AEC6  0000              add [eax],al
0000AEC8  0000              add [eax],al
0000AECA  0000              add [eax],al
0000AECC  0000              add [eax],al
0000AECE  0000              add [eax],al
0000AED0  0000              add [eax],al
0000AED2  0000              add [eax],al
0000AED4  0000              add [eax],al
0000AED6  0000              add [eax],al
0000AED8  0000              add [eax],al
0000AEDA  0000              add [eax],al
0000AEDC  0000              add [eax],al
0000AEDE  0000              add [eax],al
0000AEE0  0000              add [eax],al
0000AEE2  0000              add [eax],al
0000AEE4  0000              add [eax],al
0000AEE6  0000              add [eax],al
0000AEE8  0000              add [eax],al
0000AEEA  0000              add [eax],al
0000AEEC  0000              add [eax],al
0000AEEE  0000              add [eax],al
0000AEF0  0000              add [eax],al
0000AEF2  0000              add [eax],al
0000AEF4  0000              add [eax],al
0000AEF6  0000              add [eax],al
0000AEF8  0000              add [eax],al
0000AEFA  0000              add [eax],al
0000AEFC  0000              add [eax],al
0000AEFE  0000              add [eax],al
0000AF00  0000              add [eax],al
0000AF02  0000              add [eax],al
0000AF04  0000              add [eax],al
0000AF06  0000              add [eax],al
0000AF08  0000              add [eax],al
0000AF0A  0000              add [eax],al
0000AF0C  0000              add [eax],al
0000AF0E  0000              add [eax],al
0000AF10  0000              add [eax],al
0000AF12  0000              add [eax],al
0000AF14  0000              add [eax],al
0000AF16  0000              add [eax],al
0000AF18  0000              add [eax],al
0000AF1A  0000              add [eax],al
0000AF1C  0000              add [eax],al
0000AF1E  0000              add [eax],al
0000AF20  0000              add [eax],al
0000AF22  0000              add [eax],al
0000AF24  0000              add [eax],al
0000AF26  0000              add [eax],al
0000AF28  0000              add [eax],al
0000AF2A  0000              add [eax],al
0000AF2C  0000              add [eax],al
0000AF2E  0000              add [eax],al
0000AF30  0000              add [eax],al
0000AF32  0000              add [eax],al
0000AF34  0000              add [eax],al
0000AF36  0000              add [eax],al
0000AF38  0000              add [eax],al
0000AF3A  0000              add [eax],al
0000AF3C  0000              add [eax],al
0000AF3E  0000              add [eax],al
0000AF40  0000              add [eax],al
0000AF42  0000              add [eax],al
0000AF44  0000              add [eax],al
0000AF46  0000              add [eax],al
0000AF48  0000              add [eax],al
0000AF4A  0000              add [eax],al
0000AF4C  0000              add [eax],al
0000AF4E  0000              add [eax],al
0000AF50  0000              add [eax],al
0000AF52  0000              add [eax],al
0000AF54  0000              add [eax],al
0000AF56  0000              add [eax],al
0000AF58  0000              add [eax],al
0000AF5A  0000              add [eax],al
0000AF5C  0000              add [eax],al
0000AF5E  0000              add [eax],al
0000AF60  0000              add [eax],al
0000AF62  0000              add [eax],al
0000AF64  0000              add [eax],al
0000AF66  0000              add [eax],al
0000AF68  0000              add [eax],al
0000AF6A  0000              add [eax],al
0000AF6C  0000              add [eax],al
0000AF6E  0000              add [eax],al
0000AF70  0000              add [eax],al
0000AF72  0000              add [eax],al
0000AF74  0000              add [eax],al
0000AF76  0000              add [eax],al
0000AF78  0000              add [eax],al
0000AF7A  0000              add [eax],al
0000AF7C  0000              add [eax],al
0000AF7E  0000              add [eax],al
0000AF80  0000              add [eax],al
0000AF82  0000              add [eax],al
0000AF84  0000              add [eax],al
0000AF86  0000              add [eax],al
0000AF88  0000              add [eax],al
0000AF8A  0000              add [eax],al
0000AF8C  0000              add [eax],al
0000AF8E  0000              add [eax],al
0000AF90  0000              add [eax],al
0000AF92  0000              add [eax],al
0000AF94  0000              add [eax],al
0000AF96  0000              add [eax],al
0000AF98  0000              add [eax],al
0000AF9A  0000              add [eax],al
0000AF9C  0000              add [eax],al
0000AF9E  0000              add [eax],al
0000AFA0  0000              add [eax],al
0000AFA2  0000              add [eax],al
0000AFA4  0000              add [eax],al
0000AFA6  0000              add [eax],al
0000AFA8  0000              add [eax],al
0000AFAA  0000              add [eax],al
0000AFAC  0000              add [eax],al
0000AFAE  0000              add [eax],al
0000AFB0  0000              add [eax],al
0000AFB2  0000              add [eax],al
0000AFB4  0000              add [eax],al
0000AFB6  0000              add [eax],al
0000AFB8  0000              add [eax],al
0000AFBA  0000              add [eax],al
0000AFBC  0000              add [eax],al
0000AFBE  0000              add [eax],al
0000AFC0  0000              add [eax],al
0000AFC2  0000              add [eax],al
0000AFC4  0000              add [eax],al
0000AFC6  0000              add [eax],al
0000AFC8  0000              add [eax],al
0000AFCA  0000              add [eax],al
0000AFCC  0000              add [eax],al
0000AFCE  0000              add [eax],al
0000AFD0  0000              add [eax],al
0000AFD2  0000              add [eax],al
0000AFD4  0000              add [eax],al
0000AFD6  0000              add [eax],al
0000AFD8  0000              add [eax],al
0000AFDA  0000              add [eax],al
0000AFDC  0000              add [eax],al
0000AFDE  0000              add [eax],al
0000AFE0  0000              add [eax],al
0000AFE2  0000              add [eax],al
0000AFE4  0000              add [eax],al
0000AFE6  0000              add [eax],al
0000AFE8  0000              add [eax],al
0000AFEA  0000              add [eax],al
0000AFEC  0000              add [eax],al
0000AFEE  0000              add [eax],al
0000AFF0  0000              add [eax],al
0000AFF2  0000              add [eax],al
0000AFF4  0000              add [eax],al
0000AFF6  0000              add [eax],al
0000AFF8  0000              add [eax],al
0000AFFA  0000              add [eax],al
0000AFFC  0000              add [eax],al
0000AFFE  0000              add [eax],al
0000B000  0000              add [eax],al
0000B002  0000              add [eax],al
0000B004  0000              add [eax],al
0000B006  0000              add [eax],al
0000B008  0000              add [eax],al
0000B00A  0000              add [eax],al
0000B00C  0000              add [eax],al
0000B00E  0000              add [eax],al
0000B010  0000              add [eax],al
0000B012  0000              add [eax],al
0000B014  0000              add [eax],al
0000B016  0000              add [eax],al
0000B018  0000              add [eax],al
0000B01A  0000              add [eax],al
0000B01C  0000              add [eax],al
0000B01E  0000              add [eax],al
0000B020  0000              add [eax],al
0000B022  0000              add [eax],al
0000B024  0000              add [eax],al
0000B026  0000              add [eax],al
0000B028  0000              add [eax],al
0000B02A  0000              add [eax],al
0000B02C  0000              add [eax],al
0000B02E  0000              add [eax],al
0000B030  0000              add [eax],al
0000B032  0000              add [eax],al
0000B034  0000              add [eax],al
0000B036  0000              add [eax],al
0000B038  0000              add [eax],al
0000B03A  0000              add [eax],al
0000B03C  0000              add [eax],al
0000B03E  0000              add [eax],al
0000B040  0000              add [eax],al
0000B042  0000              add [eax],al
0000B044  0000              add [eax],al
0000B046  0000              add [eax],al
0000B048  0000              add [eax],al
0000B04A  0000              add [eax],al
0000B04C  0000              add [eax],al
0000B04E  0000              add [eax],al
0000B050  0000              add [eax],al
0000B052  0000              add [eax],al
0000B054  0000              add [eax],al
0000B056  0000              add [eax],al
0000B058  0000              add [eax],al
0000B05A  0000              add [eax],al
0000B05C  0000              add [eax],al
0000B05E  0000              add [eax],al
0000B060  0000              add [eax],al
0000B062  0000              add [eax],al
0000B064  0000              add [eax],al
0000B066  0000              add [eax],al
0000B068  0000              add [eax],al
0000B06A  0000              add [eax],al
0000B06C  0000              add [eax],al
0000B06E  0000              add [eax],al
0000B070  0000              add [eax],al
0000B072  0000              add [eax],al
0000B074  0000              add [eax],al
0000B076  0000              add [eax],al
0000B078  0000              add [eax],al
0000B07A  0000              add [eax],al
0000B07C  0000              add [eax],al
0000B07E  0000              add [eax],al
0000B080  0000              add [eax],al
0000B082  0000              add [eax],al
0000B084  0000              add [eax],al
0000B086  0000              add [eax],al
0000B088  0000              add [eax],al
0000B08A  0000              add [eax],al
0000B08C  0000              add [eax],al
0000B08E  0000              add [eax],al
0000B090  0000              add [eax],al
0000B092  0000              add [eax],al
0000B094  0000              add [eax],al
0000B096  0000              add [eax],al
0000B098  0000              add [eax],al
0000B09A  0000              add [eax],al
0000B09C  0000              add [eax],al
0000B09E  0000              add [eax],al
0000B0A0  0000              add [eax],al
0000B0A2  0000              add [eax],al
0000B0A4  0000              add [eax],al
0000B0A6  0000              add [eax],al
0000B0A8  0000              add [eax],al
0000B0AA  0000              add [eax],al
0000B0AC  0000              add [eax],al
0000B0AE  0000              add [eax],al
0000B0B0  0000              add [eax],al
0000B0B2  0000              add [eax],al
0000B0B4  0000              add [eax],al
0000B0B6  0000              add [eax],al
0000B0B8  0000              add [eax],al
0000B0BA  0000              add [eax],al
0000B0BC  0000              add [eax],al
0000B0BE  0000              add [eax],al
0000B0C0  0000              add [eax],al
0000B0C2  0000              add [eax],al
0000B0C4  0000              add [eax],al
0000B0C6  0000              add [eax],al
0000B0C8  0000              add [eax],al
0000B0CA  0000              add [eax],al
0000B0CC  0000              add [eax],al
0000B0CE  0000              add [eax],al
0000B0D0  0000              add [eax],al
0000B0D2  0000              add [eax],al
0000B0D4  0000              add [eax],al
0000B0D6  0000              add [eax],al
0000B0D8  0000              add [eax],al
0000B0DA  0000              add [eax],al
0000B0DC  0000              add [eax],al
0000B0DE  0000              add [eax],al
0000B0E0  0000              add [eax],al
0000B0E2  0000              add [eax],al
0000B0E4  0000              add [eax],al
0000B0E6  0000              add [eax],al
0000B0E8  0000              add [eax],al
0000B0EA  0000              add [eax],al
0000B0EC  0000              add [eax],al
0000B0EE  0000              add [eax],al
0000B0F0  0000              add [eax],al
0000B0F2  0000              add [eax],al
0000B0F4  0000              add [eax],al
0000B0F6  0000              add [eax],al
0000B0F8  0000              add [eax],al
0000B0FA  0000              add [eax],al
0000B0FC  0000              add [eax],al
0000B0FE  0000              add [eax],al
0000B100  0000              add [eax],al
0000B102  0000              add [eax],al
0000B104  0000              add [eax],al
0000B106  0000              add [eax],al
0000B108  0000              add [eax],al
0000B10A  0000              add [eax],al
0000B10C  0000              add [eax],al
0000B10E  0000              add [eax],al
0000B110  0000              add [eax],al
0000B112  0000              add [eax],al
0000B114  0000              add [eax],al
0000B116  0000              add [eax],al
0000B118  0000              add [eax],al
0000B11A  0000              add [eax],al
0000B11C  0000              add [eax],al
0000B11E  0000              add [eax],al
0000B120  0000              add [eax],al
0000B122  0000              add [eax],al
0000B124  0000              add [eax],al
0000B126  0000              add [eax],al
0000B128  0000              add [eax],al
0000B12A  0000              add [eax],al
0000B12C  0000              add [eax],al
0000B12E  0000              add [eax],al
0000B130  0000              add [eax],al
0000B132  0000              add [eax],al
0000B134  0000              add [eax],al
0000B136  0000              add [eax],al
0000B138  0000              add [eax],al
0000B13A  0000              add [eax],al
0000B13C  0000              add [eax],al
0000B13E  0000              add [eax],al
0000B140  0000              add [eax],al
0000B142  0000              add [eax],al
0000B144  0000              add [eax],al
0000B146  0000              add [eax],al
0000B148  0000              add [eax],al
0000B14A  0000              add [eax],al
0000B14C  0000              add [eax],al
0000B14E  0000              add [eax],al
0000B150  0000              add [eax],al
0000B152  0000              add [eax],al
0000B154  0000              add [eax],al
0000B156  0000              add [eax],al
0000B158  0000              add [eax],al
0000B15A  0000              add [eax],al
0000B15C  0000              add [eax],al
0000B15E  0000              add [eax],al
0000B160  0000              add [eax],al
0000B162  0000              add [eax],al
0000B164  0000              add [eax],al
0000B166  0000              add [eax],al
0000B168  0000              add [eax],al
0000B16A  0000              add [eax],al
0000B16C  0000              add [eax],al
0000B16E  0000              add [eax],al
0000B170  0000              add [eax],al
0000B172  0000              add [eax],al
0000B174  0000              add [eax],al
0000B176  0000              add [eax],al
0000B178  0000              add [eax],al
0000B17A  0000              add [eax],al
0000B17C  0000              add [eax],al
0000B17E  0000              add [eax],al
0000B180  0000              add [eax],al
0000B182  0000              add [eax],al
0000B184  0000              add [eax],al
0000B186  0000              add [eax],al
0000B188  0000              add [eax],al
0000B18A  0000              add [eax],al
0000B18C  0000              add [eax],al
0000B18E  0000              add [eax],al
0000B190  0000              add [eax],al
0000B192  0000              add [eax],al
0000B194  0000              add [eax],al
0000B196  0000              add [eax],al
0000B198  0000              add [eax],al
0000B19A  0000              add [eax],al
0000B19C  0000              add [eax],al
0000B19E  0000              add [eax],al
0000B1A0  0000              add [eax],al
0000B1A2  0000              add [eax],al
0000B1A4  0000              add [eax],al
0000B1A6  0000              add [eax],al
0000B1A8  0000              add [eax],al
0000B1AA  0000              add [eax],al
0000B1AC  0000              add [eax],al
0000B1AE  0000              add [eax],al
0000B1B0  0000              add [eax],al
0000B1B2  0000              add [eax],al
0000B1B4  0000              add [eax],al
0000B1B6  0000              add [eax],al
0000B1B8  0000              add [eax],al
0000B1BA  0000              add [eax],al
0000B1BC  0000              add [eax],al
0000B1BE  0000              add [eax],al
0000B1C0  0000              add [eax],al
0000B1C2  0000              add [eax],al
0000B1C4  0000              add [eax],al
0000B1C6  0000              add [eax],al
0000B1C8  0000              add [eax],al
0000B1CA  0000              add [eax],al
0000B1CC  0000              add [eax],al
0000B1CE  0000              add [eax],al
0000B1D0  0000              add [eax],al
0000B1D2  0000              add [eax],al
0000B1D4  0000              add [eax],al
0000B1D6  0000              add [eax],al
0000B1D8  0000              add [eax],al
0000B1DA  0000              add [eax],al
0000B1DC  0000              add [eax],al
0000B1DE  0000              add [eax],al
0000B1E0  0000              add [eax],al
0000B1E2  0000              add [eax],al
0000B1E4  0000              add [eax],al
0000B1E6  0000              add [eax],al
0000B1E8  0000              add [eax],al
0000B1EA  0000              add [eax],al
0000B1EC  0000              add [eax],al
0000B1EE  0000              add [eax],al
0000B1F0  0000              add [eax],al
0000B1F2  0000              add [eax],al
0000B1F4  0000              add [eax],al
0000B1F6  0000              add [eax],al
0000B1F8  0000              add [eax],al
0000B1FA  0000              add [eax],al
0000B1FC  0000              add [eax],al
0000B1FE  0000              add [eax],al
0000B200  0000              add [eax],al
0000B202  0000              add [eax],al
0000B204  0000              add [eax],al
0000B206  0000              add [eax],al
0000B208  0000              add [eax],al
0000B20A  0000              add [eax],al
0000B20C  0000              add [eax],al
0000B20E  0000              add [eax],al
0000B210  0000              add [eax],al
0000B212  0000              add [eax],al
0000B214  0000              add [eax],al
0000B216  0000              add [eax],al
0000B218  0000              add [eax],al
0000B21A  0000              add [eax],al
0000B21C  0000              add [eax],al
0000B21E  0000              add [eax],al
0000B220  0000              add [eax],al
0000B222  0000              add [eax],al
0000B224  0000              add [eax],al
0000B226  0000              add [eax],al
0000B228  0000              add [eax],al
0000B22A  0000              add [eax],al
0000B22C  0000              add [eax],al
0000B22E  0000              add [eax],al
0000B230  0000              add [eax],al
0000B232  0000              add [eax],al
0000B234  0000              add [eax],al
0000B236  0000              add [eax],al
0000B238  0000              add [eax],al
0000B23A  0000              add [eax],al
0000B23C  0000              add [eax],al
0000B23E  0000              add [eax],al
0000B240  0000              add [eax],al
0000B242  0000              add [eax],al
0000B244  0000              add [eax],al
0000B246  0000              add [eax],al
0000B248  0000              add [eax],al
0000B24A  0000              add [eax],al
0000B24C  0000              add [eax],al
0000B24E  0000              add [eax],al
0000B250  0000              add [eax],al
0000B252  0000              add [eax],al
0000B254  0000              add [eax],al
0000B256  0000              add [eax],al
0000B258  0000              add [eax],al
0000B25A  0000              add [eax],al
0000B25C  0000              add [eax],al
0000B25E  0000              add [eax],al
0000B260  0000              add [eax],al
0000B262  0000              add [eax],al
0000B264  0000              add [eax],al
0000B266  0000              add [eax],al
0000B268  0000              add [eax],al
0000B26A  0000              add [eax],al
0000B26C  0000              add [eax],al
0000B26E  0000              add [eax],al
0000B270  0000              add [eax],al
0000B272  0000              add [eax],al
0000B274  0000              add [eax],al
0000B276  0000              add [eax],al
0000B278  0000              add [eax],al
0000B27A  0000              add [eax],al
0000B27C  0000              add [eax],al
0000B27E  0000              add [eax],al
0000B280  0000              add [eax],al
0000B282  0000              add [eax],al
0000B284  0000              add [eax],al
0000B286  0000              add [eax],al
0000B288  0000              add [eax],al
0000B28A  0000              add [eax],al
0000B28C  0000              add [eax],al
0000B28E  0000              add [eax],al
0000B290  0000              add [eax],al
0000B292  0000              add [eax],al
0000B294  0000              add [eax],al
0000B296  0000              add [eax],al
0000B298  0000              add [eax],al
0000B29A  0000              add [eax],al
0000B29C  0000              add [eax],al
0000B29E  0000              add [eax],al
0000B2A0  0000              add [eax],al
0000B2A2  0000              add [eax],al
0000B2A4  0000              add [eax],al
0000B2A6  0000              add [eax],al
0000B2A8  0000              add [eax],al
0000B2AA  0000              add [eax],al
0000B2AC  0000              add [eax],al
0000B2AE  0000              add [eax],al
0000B2B0  0000              add [eax],al
0000B2B2  0000              add [eax],al
0000B2B4  0000              add [eax],al
0000B2B6  0000              add [eax],al
0000B2B8  0000              add [eax],al
0000B2BA  0000              add [eax],al
0000B2BC  0000              add [eax],al
0000B2BE  0000              add [eax],al
0000B2C0  0000              add [eax],al
0000B2C2  0000              add [eax],al
0000B2C4  0000              add [eax],al
0000B2C6  0000              add [eax],al
0000B2C8  0000              add [eax],al
0000B2CA  0000              add [eax],al
0000B2CC  0000              add [eax],al
0000B2CE  0000              add [eax],al
0000B2D0  0000              add [eax],al
0000B2D2  0000              add [eax],al
0000B2D4  0000              add [eax],al
0000B2D6  0000              add [eax],al
0000B2D8  0000              add [eax],al
0000B2DA  0000              add [eax],al
0000B2DC  0000              add [eax],al
0000B2DE  0000              add [eax],al
0000B2E0  0000              add [eax],al
0000B2E2  0000              add [eax],al
0000B2E4  0000              add [eax],al
0000B2E6  0000              add [eax],al
0000B2E8  0000              add [eax],al
0000B2EA  0000              add [eax],al
0000B2EC  0000              add [eax],al
0000B2EE  0000              add [eax],al
0000B2F0  0000              add [eax],al
0000B2F2  0000              add [eax],al
0000B2F4  0000              add [eax],al
0000B2F6  0000              add [eax],al
0000B2F8  0000              add [eax],al
0000B2FA  0000              add [eax],al
0000B2FC  0000              add [eax],al
0000B2FE  0000              add [eax],al
0000B300  0000              add [eax],al
0000B302  0000              add [eax],al
0000B304  0000              add [eax],al
0000B306  0000              add [eax],al
0000B308  0000              add [eax],al
0000B30A  0000              add [eax],al
0000B30C  0000              add [eax],al
0000B30E  0000              add [eax],al
0000B310  0000              add [eax],al
0000B312  0000              add [eax],al
0000B314  0000              add [eax],al
0000B316  0000              add [eax],al
0000B318  0000              add [eax],al
0000B31A  0000              add [eax],al
0000B31C  0000              add [eax],al
0000B31E  0000              add [eax],al
0000B320  0000              add [eax],al
0000B322  0000              add [eax],al
0000B324  0000              add [eax],al
0000B326  0000              add [eax],al
0000B328  0000              add [eax],al
0000B32A  0000              add [eax],al
0000B32C  0000              add [eax],al
0000B32E  0000              add [eax],al
0000B330  0000              add [eax],al
0000B332  0000              add [eax],al
0000B334  0000              add [eax],al
0000B336  0000              add [eax],al
0000B338  0000              add [eax],al
0000B33A  0000              add [eax],al
0000B33C  0000              add [eax],al
0000B33E  0000              add [eax],al
0000B340  0000              add [eax],al
0000B342  0000              add [eax],al
0000B344  0000              add [eax],al
0000B346  0000              add [eax],al
0000B348  0000              add [eax],al
0000B34A  0000              add [eax],al
0000B34C  0000              add [eax],al
0000B34E  0000              add [eax],al
0000B350  0000              add [eax],al
0000B352  0000              add [eax],al
0000B354  0000              add [eax],al
0000B356  0000              add [eax],al
0000B358  0000              add [eax],al
0000B35A  0000              add [eax],al
0000B35C  0000              add [eax],al
0000B35E  0000              add [eax],al
0000B360  0000              add [eax],al
0000B362  0000              add [eax],al
0000B364  0000              add [eax],al
0000B366  0000              add [eax],al
0000B368  0000              add [eax],al
0000B36A  0000              add [eax],al
0000B36C  0000              add [eax],al
0000B36E  0000              add [eax],al
0000B370  0000              add [eax],al
0000B372  0000              add [eax],al
0000B374  0000              add [eax],al
0000B376  0000              add [eax],al
0000B378  0000              add [eax],al
0000B37A  0000              add [eax],al
0000B37C  0000              add [eax],al
0000B37E  0000              add [eax],al
0000B380  0000              add [eax],al
0000B382  0000              add [eax],al
0000B384  0000              add [eax],al
0000B386  0000              add [eax],al
0000B388  0000              add [eax],al
0000B38A  0000              add [eax],al
0000B38C  0000              add [eax],al
0000B38E  0000              add [eax],al
0000B390  0000              add [eax],al
0000B392  0000              add [eax],al
0000B394  0000              add [eax],al
0000B396  0000              add [eax],al
0000B398  0000              add [eax],al
0000B39A  0000              add [eax],al
0000B39C  0000              add [eax],al
0000B39E  0000              add [eax],al
0000B3A0  0000              add [eax],al
0000B3A2  0000              add [eax],al
0000B3A4  0000              add [eax],al
0000B3A6  0000              add [eax],al
0000B3A8  0000              add [eax],al
0000B3AA  0000              add [eax],al
0000B3AC  0000              add [eax],al
0000B3AE  0000              add [eax],al
0000B3B0  0000              add [eax],al
0000B3B2  0000              add [eax],al
0000B3B4  0000              add [eax],al
0000B3B6  0000              add [eax],al
0000B3B8  0000              add [eax],al
0000B3BA  0000              add [eax],al
0000B3BC  0000              add [eax],al
0000B3BE  0000              add [eax],al
0000B3C0  0000              add [eax],al
0000B3C2  0000              add [eax],al
0000B3C4  0000              add [eax],al
0000B3C6  0000              add [eax],al
0000B3C8  0000              add [eax],al
0000B3CA  0000              add [eax],al
0000B3CC  0000              add [eax],al
0000B3CE  0000              add [eax],al
0000B3D0  0000              add [eax],al
0000B3D2  0000              add [eax],al
0000B3D4  0000              add [eax],al
0000B3D6  0000              add [eax],al
0000B3D8  0000              add [eax],al
0000B3DA  0000              add [eax],al
0000B3DC  0000              add [eax],al
0000B3DE  0000              add [eax],al
0000B3E0  0000              add [eax],al
0000B3E2  0000              add [eax],al
0000B3E4  0000              add [eax],al
0000B3E6  0000              add [eax],al
0000B3E8  0000              add [eax],al
0000B3EA  0000              add [eax],al
0000B3EC  0000              add [eax],al
0000B3EE  0000              add [eax],al
0000B3F0  0000              add [eax],al
0000B3F2  0000              add [eax],al
0000B3F4  0000              add [eax],al
0000B3F6  0000              add [eax],al
0000B3F8  0000              add [eax],al
0000B3FA  0000              add [eax],al
0000B3FC  0000              add [eax],al
0000B3FE  0000              add [eax],al
0000B400  0000              add [eax],al
0000B402  0000              add [eax],al
0000B404  0000              add [eax],al
0000B406  0000              add [eax],al
0000B408  0000              add [eax],al
0000B40A  0000              add [eax],al
0000B40C  0000              add [eax],al
0000B40E  0000              add [eax],al
0000B410  0000              add [eax],al
0000B412  0000              add [eax],al
0000B414  0000              add [eax],al
0000B416  0000              add [eax],al
0000B418  0000              add [eax],al
0000B41A  0000              add [eax],al
0000B41C  0000              add [eax],al
0000B41E  0000              add [eax],al
0000B420  0000              add [eax],al
0000B422  0000              add [eax],al
0000B424  0000              add [eax],al
0000B426  0000              add [eax],al
0000B428  0000              add [eax],al
0000B42A  0000              add [eax],al
0000B42C  0000              add [eax],al
0000B42E  0000              add [eax],al
0000B430  0000              add [eax],al
0000B432  0000              add [eax],al
0000B434  0000              add [eax],al
0000B436  0000              add [eax],al
0000B438  0000              add [eax],al
0000B43A  0000              add [eax],al
0000B43C  0000              add [eax],al
0000B43E  0000              add [eax],al
0000B440  0000              add [eax],al
0000B442  0000              add [eax],al
0000B444  0000              add [eax],al
0000B446  0000              add [eax],al
0000B448  0000              add [eax],al
0000B44A  0000              add [eax],al
0000B44C  0000              add [eax],al
0000B44E  0000              add [eax],al
0000B450  0000              add [eax],al
0000B452  0000              add [eax],al
0000B454  0000              add [eax],al
0000B456  0000              add [eax],al
0000B458  0000              add [eax],al
0000B45A  0000              add [eax],al
0000B45C  0000              add [eax],al
0000B45E  0000              add [eax],al
0000B460  0000              add [eax],al
0000B462  0000              add [eax],al
0000B464  0000              add [eax],al
0000B466  0000              add [eax],al
0000B468  0000              add [eax],al
0000B46A  0000              add [eax],al
0000B46C  0000              add [eax],al
0000B46E  0000              add [eax],al
0000B470  0000              add [eax],al
0000B472  0000              add [eax],al
0000B474  0000              add [eax],al
0000B476  0000              add [eax],al
0000B478  0000              add [eax],al
0000B47A  0000              add [eax],al
0000B47C  0000              add [eax],al
0000B47E  0000              add [eax],al
0000B480  0000              add [eax],al
0000B482  0000              add [eax],al
0000B484  0000              add [eax],al
0000B486  0000              add [eax],al
0000B488  0000              add [eax],al
0000B48A  0000              add [eax],al
0000B48C  0000              add [eax],al
0000B48E  0000              add [eax],al
0000B490  0000              add [eax],al
0000B492  0000              add [eax],al
0000B494  0000              add [eax],al
0000B496  0000              add [eax],al
0000B498  0000              add [eax],al
0000B49A  0000              add [eax],al
0000B49C  0000              add [eax],al
0000B49E  0000              add [eax],al
0000B4A0  0000              add [eax],al
0000B4A2  0000              add [eax],al
0000B4A4  0000              add [eax],al
0000B4A6  0000              add [eax],al
0000B4A8  0000              add [eax],al
0000B4AA  0000              add [eax],al
0000B4AC  0000              add [eax],al
0000B4AE  0000              add [eax],al
0000B4B0  0000              add [eax],al
0000B4B2  0000              add [eax],al
0000B4B4  0000              add [eax],al
0000B4B6  0000              add [eax],al
0000B4B8  0000              add [eax],al
0000B4BA  0000              add [eax],al
0000B4BC  0000              add [eax],al
0000B4BE  0000              add [eax],al
0000B4C0  0000              add [eax],al
0000B4C2  0000              add [eax],al
0000B4C4  0000              add [eax],al
0000B4C6  0000              add [eax],al
0000B4C8  0000              add [eax],al
0000B4CA  0000              add [eax],al
0000B4CC  0000              add [eax],al
0000B4CE  0000              add [eax],al
0000B4D0  0000              add [eax],al
0000B4D2  0000              add [eax],al
0000B4D4  0000              add [eax],al
0000B4D6  0000              add [eax],al
0000B4D8  0000              add [eax],al
0000B4DA  0000              add [eax],al
0000B4DC  0000              add [eax],al
0000B4DE  0000              add [eax],al
0000B4E0  0000              add [eax],al
0000B4E2  0000              add [eax],al
0000B4E4  0000              add [eax],al
0000B4E6  0000              add [eax],al
0000B4E8  0000              add [eax],al
0000B4EA  0000              add [eax],al
0000B4EC  0000              add [eax],al
0000B4EE  0000              add [eax],al
0000B4F0  0000              add [eax],al
0000B4F2  0000              add [eax],al
0000B4F4  0000              add [eax],al
0000B4F6  0000              add [eax],al
0000B4F8  0000              add [eax],al
0000B4FA  0000              add [eax],al
0000B4FC  0000              add [eax],al
0000B4FE  0000              add [eax],al
0000B500  0000              add [eax],al
0000B502  0000              add [eax],al
0000B504  0000              add [eax],al
0000B506  0000              add [eax],al
0000B508  0000              add [eax],al
0000B50A  0000              add [eax],al
0000B50C  0000              add [eax],al
0000B50E  0000              add [eax],al
0000B510  0000              add [eax],al
0000B512  0000              add [eax],al
0000B514  0000              add [eax],al
0000B516  0000              add [eax],al
0000B518  0000              add [eax],al
0000B51A  0000              add [eax],al
0000B51C  0000              add [eax],al
0000B51E  0000              add [eax],al
0000B520  0000              add [eax],al
0000B522  0000              add [eax],al
0000B524  0000              add [eax],al
0000B526  0000              add [eax],al
0000B528  0000              add [eax],al
0000B52A  0000              add [eax],al
0000B52C  0000              add [eax],al
0000B52E  0000              add [eax],al
0000B530  0000              add [eax],al
0000B532  0000              add [eax],al
0000B534  0000              add [eax],al
0000B536  0000              add [eax],al
0000B538  0000              add [eax],al
0000B53A  0000              add [eax],al
0000B53C  0000              add [eax],al
0000B53E  0000              add [eax],al
0000B540  0000              add [eax],al
0000B542  0000              add [eax],al
0000B544  0000              add [eax],al
0000B546  0000              add [eax],al
0000B548  0000              add [eax],al
0000B54A  0000              add [eax],al
0000B54C  0000              add [eax],al
0000B54E  0000              add [eax],al
0000B550  0000              add [eax],al
0000B552  0000              add [eax],al
0000B554  0000              add [eax],al
0000B556  0000              add [eax],al
0000B558  0000              add [eax],al
0000B55A  0000              add [eax],al
0000B55C  0000              add [eax],al
0000B55E  0000              add [eax],al
0000B560  0000              add [eax],al
0000B562  0000              add [eax],al
0000B564  0000              add [eax],al
0000B566  0000              add [eax],al
0000B568  0000              add [eax],al
0000B56A  0000              add [eax],al
0000B56C  0000              add [eax],al
0000B56E  0000              add [eax],al
0000B570  0000              add [eax],al
0000B572  0000              add [eax],al
0000B574  0000              add [eax],al
0000B576  0000              add [eax],al
0000B578  0000              add [eax],al
0000B57A  0000              add [eax],al
0000B57C  0000              add [eax],al
0000B57E  0000              add [eax],al
0000B580  0000              add [eax],al
0000B582  0000              add [eax],al
0000B584  0000              add [eax],al
0000B586  0000              add [eax],al
0000B588  0000              add [eax],al
0000B58A  0000              add [eax],al
0000B58C  0000              add [eax],al
0000B58E  0000              add [eax],al
0000B590  0000              add [eax],al
0000B592  0000              add [eax],al
0000B594  0000              add [eax],al
0000B596  0000              add [eax],al
0000B598  0000              add [eax],al
0000B59A  0000              add [eax],al
0000B59C  0000              add [eax],al
0000B59E  0000              add [eax],al
0000B5A0  0000              add [eax],al
0000B5A2  0000              add [eax],al
0000B5A4  0000              add [eax],al
0000B5A6  0000              add [eax],al
0000B5A8  0000              add [eax],al
0000B5AA  0000              add [eax],al
0000B5AC  0000              add [eax],al
0000B5AE  0000              add [eax],al
0000B5B0  0000              add [eax],al
0000B5B2  0000              add [eax],al
0000B5B4  0000              add [eax],al
0000B5B6  0000              add [eax],al
0000B5B8  0000              add [eax],al
0000B5BA  0000              add [eax],al
0000B5BC  0000              add [eax],al
0000B5BE  0000              add [eax],al
0000B5C0  0000              add [eax],al
0000B5C2  0000              add [eax],al
0000B5C4  0000              add [eax],al
0000B5C6  0000              add [eax],al
0000B5C8  0000              add [eax],al
0000B5CA  0000              add [eax],al
0000B5CC  0000              add [eax],al
0000B5CE  0000              add [eax],al
0000B5D0  0000              add [eax],al
0000B5D2  0000              add [eax],al
0000B5D4  0000              add [eax],al
0000B5D6  0000              add [eax],al
0000B5D8  0000              add [eax],al
0000B5DA  0000              add [eax],al
0000B5DC  0000              add [eax],al
0000B5DE  0000              add [eax],al
0000B5E0  0000              add [eax],al
0000B5E2  0000              add [eax],al
0000B5E4  0000              add [eax],al
0000B5E6  0000              add [eax],al
0000B5E8  0000              add [eax],al
0000B5EA  0000              add [eax],al
0000B5EC  0000              add [eax],al
0000B5EE  0000              add [eax],al
0000B5F0  0000              add [eax],al
0000B5F2  0000              add [eax],al
0000B5F4  0000              add [eax],al
0000B5F6  0000              add [eax],al
0000B5F8  0000              add [eax],al
0000B5FA  0000              add [eax],al
0000B5FC  0000              add [eax],al
0000B5FE  0000              add [eax],al
0000B600  0000              add [eax],al
0000B602  0000              add [eax],al
0000B604  0000              add [eax],al
0000B606  0000              add [eax],al
0000B608  0000              add [eax],al
0000B60A  0000              add [eax],al
0000B60C  0000              add [eax],al
0000B60E  0000              add [eax],al
0000B610  0000              add [eax],al
0000B612  0000              add [eax],al
0000B614  0000              add [eax],al
0000B616  0000              add [eax],al
0000B618  0000              add [eax],al
0000B61A  0000              add [eax],al
0000B61C  0000              add [eax],al
0000B61E  0000              add [eax],al
0000B620  0000              add [eax],al
0000B622  0000              add [eax],al
0000B624  0000              add [eax],al
0000B626  0000              add [eax],al
0000B628  0000              add [eax],al
0000B62A  0000              add [eax],al
0000B62C  0000              add [eax],al
0000B62E  0000              add [eax],al
0000B630  0000              add [eax],al
0000B632  0000              add [eax],al
0000B634  0000              add [eax],al
0000B636  0000              add [eax],al
0000B638  0000              add [eax],al
0000B63A  0000              add [eax],al
0000B63C  0000              add [eax],al
0000B63E  0000              add [eax],al
0000B640  0000              add [eax],al
0000B642  0000              add [eax],al
0000B644  0000              add [eax],al
0000B646  0000              add [eax],al
0000B648  0000              add [eax],al
0000B64A  0000              add [eax],al
0000B64C  0000              add [eax],al
0000B64E  0000              add [eax],al
0000B650  0000              add [eax],al
0000B652  0000              add [eax],al
0000B654  0000              add [eax],al
0000B656  0000              add [eax],al
0000B658  0000              add [eax],al
0000B65A  0000              add [eax],al
0000B65C  0000              add [eax],al
0000B65E  0000              add [eax],al
0000B660  0000              add [eax],al
0000B662  0000              add [eax],al
0000B664  0000              add [eax],al
0000B666  0000              add [eax],al
0000B668  0000              add [eax],al
0000B66A  0000              add [eax],al
0000B66C  0000              add [eax],al
0000B66E  0000              add [eax],al
0000B670  0000              add [eax],al
0000B672  0000              add [eax],al
0000B674  0000              add [eax],al
0000B676  0000              add [eax],al
0000B678  0000              add [eax],al
0000B67A  0000              add [eax],al
0000B67C  0000              add [eax],al
0000B67E  0000              add [eax],al
0000B680  0000              add [eax],al
0000B682  0000              add [eax],al
0000B684  0000              add [eax],al
0000B686  0000              add [eax],al
0000B688  0000              add [eax],al
0000B68A  0000              add [eax],al
0000B68C  0000              add [eax],al
0000B68E  0000              add [eax],al
0000B690  0000              add [eax],al
0000B692  0000              add [eax],al
0000B694  0000              add [eax],al
0000B696  0000              add [eax],al
0000B698  0000              add [eax],al
0000B69A  0000              add [eax],al
0000B69C  0000              add [eax],al
0000B69E  0000              add [eax],al
0000B6A0  0000              add [eax],al
0000B6A2  0000              add [eax],al
0000B6A4  0000              add [eax],al
0000B6A6  0000              add [eax],al
0000B6A8  0000              add [eax],al
0000B6AA  0000              add [eax],al
0000B6AC  0000              add [eax],al
0000B6AE  0000              add [eax],al
0000B6B0  0000              add [eax],al
0000B6B2  0000              add [eax],al
0000B6B4  0000              add [eax],al
0000B6B6  0000              add [eax],al
0000B6B8  0000              add [eax],al
0000B6BA  0000              add [eax],al
0000B6BC  0000              add [eax],al
0000B6BE  0000              add [eax],al
0000B6C0  0000              add [eax],al
0000B6C2  0000              add [eax],al
0000B6C4  0000              add [eax],al
0000B6C6  0000              add [eax],al
0000B6C8  0000              add [eax],al
0000B6CA  0000              add [eax],al
0000B6CC  0000              add [eax],al
0000B6CE  0000              add [eax],al
0000B6D0  0000              add [eax],al
0000B6D2  0000              add [eax],al
0000B6D4  0000              add [eax],al
0000B6D6  0000              add [eax],al
0000B6D8  0000              add [eax],al
0000B6DA  0000              add [eax],al
0000B6DC  0000              add [eax],al
0000B6DE  0000              add [eax],al
0000B6E0  0000              add [eax],al
0000B6E2  0000              add [eax],al
0000B6E4  0000              add [eax],al
0000B6E6  0000              add [eax],al
0000B6E8  0000              add [eax],al
0000B6EA  0000              add [eax],al
0000B6EC  0000              add [eax],al
0000B6EE  0000              add [eax],al
0000B6F0  0000              add [eax],al
0000B6F2  0000              add [eax],al
0000B6F4  0000              add [eax],al
0000B6F6  0000              add [eax],al
0000B6F8  0000              add [eax],al
0000B6FA  0000              add [eax],al
0000B6FC  0000              add [eax],al
0000B6FE  0000              add [eax],al
0000B700  0000              add [eax],al
0000B702  0000              add [eax],al
0000B704  0000              add [eax],al
0000B706  0000              add [eax],al
0000B708  0000              add [eax],al
0000B70A  0000              add [eax],al
0000B70C  0000              add [eax],al
0000B70E  0000              add [eax],al
0000B710  0000              add [eax],al
0000B712  0000              add [eax],al
0000B714  0000              add [eax],al
0000B716  0000              add [eax],al
0000B718  0000              add [eax],al
0000B71A  0000              add [eax],al
0000B71C  0000              add [eax],al
0000B71E  0000              add [eax],al
0000B720  0000              add [eax],al
0000B722  0000              add [eax],al
0000B724  0000              add [eax],al
0000B726  0000              add [eax],al
0000B728  0000              add [eax],al
0000B72A  0000              add [eax],al
0000B72C  0000              add [eax],al
0000B72E  0000              add [eax],al
0000B730  0000              add [eax],al
0000B732  0000              add [eax],al
0000B734  0000              add [eax],al
0000B736  0000              add [eax],al
0000B738  0000              add [eax],al
0000B73A  0000              add [eax],al
0000B73C  0000              add [eax],al
0000B73E  0000              add [eax],al
0000B740  0000              add [eax],al
0000B742  0000              add [eax],al
0000B744  0000              add [eax],al
0000B746  0000              add [eax],al
0000B748  0000              add [eax],al
0000B74A  0000              add [eax],al
0000B74C  0000              add [eax],al
0000B74E  0000              add [eax],al
0000B750  0000              add [eax],al
0000B752  0000              add [eax],al
0000B754  0000              add [eax],al
0000B756  0000              add [eax],al
0000B758  0000              add [eax],al
0000B75A  0000              add [eax],al
0000B75C  0000              add [eax],al
0000B75E  0000              add [eax],al
0000B760  0000              add [eax],al
0000B762  0000              add [eax],al
0000B764  0000              add [eax],al
0000B766  0000              add [eax],al
0000B768  0000              add [eax],al
0000B76A  0000              add [eax],al
0000B76C  0000              add [eax],al
0000B76E  0000              add [eax],al
0000B770  0000              add [eax],al
0000B772  0000              add [eax],al
0000B774  0000              add [eax],al
0000B776  0000              add [eax],al
0000B778  0000              add [eax],al
0000B77A  0000              add [eax],al
0000B77C  0000              add [eax],al
0000B77E  0000              add [eax],al
0000B780  0000              add [eax],al
0000B782  0000              add [eax],al
0000B784  0000              add [eax],al
0000B786  0000              add [eax],al
0000B788  0000              add [eax],al
0000B78A  0000              add [eax],al
0000B78C  0000              add [eax],al
0000B78E  0000              add [eax],al
0000B790  0000              add [eax],al
0000B792  0000              add [eax],al
0000B794  0000              add [eax],al
0000B796  0000              add [eax],al
0000B798  0000              add [eax],al
0000B79A  0000              add [eax],al
0000B79C  0000              add [eax],al
0000B79E  0000              add [eax],al
0000B7A0  0000              add [eax],al
0000B7A2  0000              add [eax],al
0000B7A4  0000              add [eax],al
0000B7A6  0000              add [eax],al
0000B7A8  0000              add [eax],al
0000B7AA  0000              add [eax],al
0000B7AC  0000              add [eax],al
0000B7AE  0000              add [eax],al
0000B7B0  0000              add [eax],al
0000B7B2  0000              add [eax],al
0000B7B4  0000              add [eax],al
0000B7B6  0000              add [eax],al
0000B7B8  0000              add [eax],al
0000B7BA  0000              add [eax],al
0000B7BC  0000              add [eax],al
0000B7BE  0000              add [eax],al
0000B7C0  0000              add [eax],al
0000B7C2  0000              add [eax],al
0000B7C4  0000              add [eax],al
0000B7C6  0000              add [eax],al
0000B7C8  0000              add [eax],al
0000B7CA  0000              add [eax],al
0000B7CC  0000              add [eax],al
0000B7CE  0000              add [eax],al
0000B7D0  0000              add [eax],al
0000B7D2  0000              add [eax],al
0000B7D4  0000              add [eax],al
0000B7D6  0000              add [eax],al
0000B7D8  0000              add [eax],al
0000B7DA  0000              add [eax],al
0000B7DC  0000              add [eax],al
0000B7DE  0000              add [eax],al
0000B7E0  0000              add [eax],al
0000B7E2  0000              add [eax],al
0000B7E4  0000              add [eax],al
0000B7E6  0000              add [eax],al
0000B7E8  0000              add [eax],al
0000B7EA  0000              add [eax],al
0000B7EC  0000              add [eax],al
0000B7EE  0000              add [eax],al
0000B7F0  0000              add [eax],al
0000B7F2  0000              add [eax],al
0000B7F4  0000              add [eax],al
0000B7F6  0000              add [eax],al
0000B7F8  0000              add [eax],al
0000B7FA  0000              add [eax],al
0000B7FC  0000              add [eax],al
0000B7FE  0000              add [eax],al
0000B800  0000              add [eax],al
0000B802  0000              add [eax],al
0000B804  0000              add [eax],al
0000B806  0000              add [eax],al
0000B808  0000              add [eax],al
0000B80A  0000              add [eax],al
0000B80C  0000              add [eax],al
0000B80E  0000              add [eax],al
0000B810  0000              add [eax],al
0000B812  0000              add [eax],al
0000B814  0000              add [eax],al
0000B816  0000              add [eax],al
0000B818  0000              add [eax],al
0000B81A  0000              add [eax],al
0000B81C  0000              add [eax],al
0000B81E  0000              add [eax],al
0000B820  0000              add [eax],al
0000B822  0000              add [eax],al
0000B824  0000              add [eax],al
0000B826  0000              add [eax],al
0000B828  0000              add [eax],al
0000B82A  0000              add [eax],al
0000B82C  0000              add [eax],al
0000B82E  0000              add [eax],al
0000B830  0000              add [eax],al
0000B832  0000              add [eax],al
0000B834  0000              add [eax],al
0000B836  0000              add [eax],al
0000B838  0000              add [eax],al
0000B83A  0000              add [eax],al
0000B83C  0000              add [eax],al
0000B83E  0000              add [eax],al
0000B840  0000              add [eax],al
0000B842  0000              add [eax],al
0000B844  0000              add [eax],al
0000B846  0000              add [eax],al
0000B848  0000              add [eax],al
0000B84A  0000              add [eax],al
0000B84C  0000              add [eax],al
0000B84E  0000              add [eax],al
0000B850  0000              add [eax],al
0000B852  0000              add [eax],al
0000B854  0000              add [eax],al
0000B856  0000              add [eax],al
0000B858  0000              add [eax],al
0000B85A  0000              add [eax],al
0000B85C  0000              add [eax],al
0000B85E  0000              add [eax],al
0000B860  0000              add [eax],al
0000B862  0000              add [eax],al
0000B864  0000              add [eax],al
0000B866  0000              add [eax],al
0000B868  0000              add [eax],al
0000B86A  0000              add [eax],al
0000B86C  0000              add [eax],al
0000B86E  0000              add [eax],al
0000B870  0000              add [eax],al
0000B872  0000              add [eax],al
0000B874  0000              add [eax],al
0000B876  0000              add [eax],al
0000B878  0000              add [eax],al
0000B87A  0000              add [eax],al
0000B87C  0000              add [eax],al
0000B87E  0000              add [eax],al
0000B880  0000              add [eax],al
0000B882  0000              add [eax],al
0000B884  0000              add [eax],al
0000B886  0000              add [eax],al
0000B888  0000              add [eax],al
0000B88A  0000              add [eax],al
0000B88C  0000              add [eax],al
0000B88E  0000              add [eax],al
0000B890  0000              add [eax],al
0000B892  0000              add [eax],al
0000B894  0000              add [eax],al
0000B896  0000              add [eax],al
0000B898  0000              add [eax],al
0000B89A  0000              add [eax],al
0000B89C  0000              add [eax],al
0000B89E  0000              add [eax],al
0000B8A0  0000              add [eax],al
0000B8A2  0000              add [eax],al
0000B8A4  0000              add [eax],al
0000B8A6  0000              add [eax],al
0000B8A8  0000              add [eax],al
0000B8AA  0000              add [eax],al
0000B8AC  0000              add [eax],al
0000B8AE  0000              add [eax],al
0000B8B0  0000              add [eax],al
0000B8B2  0000              add [eax],al
0000B8B4  0000              add [eax],al
0000B8B6  0000              add [eax],al
0000B8B8  0000              add [eax],al
0000B8BA  0000              add [eax],al
0000B8BC  0000              add [eax],al
0000B8BE  0000              add [eax],al
0000B8C0  0000              add [eax],al
0000B8C2  0000              add [eax],al
0000B8C4  0000              add [eax],al
0000B8C6  0000              add [eax],al
0000B8C8  0000              add [eax],al
0000B8CA  0000              add [eax],al
0000B8CC  0000              add [eax],al
0000B8CE  0000              add [eax],al
0000B8D0  0000              add [eax],al
0000B8D2  0000              add [eax],al
0000B8D4  0000              add [eax],al
0000B8D6  0000              add [eax],al
0000B8D8  0000              add [eax],al
0000B8DA  0000              add [eax],al
0000B8DC  0000              add [eax],al
0000B8DE  0000              add [eax],al
0000B8E0  0000              add [eax],al
0000B8E2  0000              add [eax],al
0000B8E4  0000              add [eax],al
0000B8E6  0000              add [eax],al
0000B8E8  0000              add [eax],al
0000B8EA  0000              add [eax],al
0000B8EC  0000              add [eax],al
0000B8EE  0000              add [eax],al
0000B8F0  0000              add [eax],al
0000B8F2  0000              add [eax],al
0000B8F4  0000              add [eax],al
0000B8F6  0000              add [eax],al
0000B8F8  0000              add [eax],al
0000B8FA  0000              add [eax],al
0000B8FC  0000              add [eax],al
0000B8FE  0000              add [eax],al
0000B900  0000              add [eax],al
0000B902  0000              add [eax],al
0000B904  0000              add [eax],al
0000B906  0000              add [eax],al
0000B908  0000              add [eax],al
0000B90A  0000              add [eax],al
0000B90C  0000              add [eax],al
0000B90E  0000              add [eax],al
0000B910  0000              add [eax],al
0000B912  0000              add [eax],al
0000B914  0000              add [eax],al
0000B916  0000              add [eax],al
0000B918  0000              add [eax],al
0000B91A  0000              add [eax],al
0000B91C  0000              add [eax],al
0000B91E  0000              add [eax],al
0000B920  0000              add [eax],al
0000B922  0000              add [eax],al
0000B924  0000              add [eax],al
0000B926  0000              add [eax],al
0000B928  0000              add [eax],al
0000B92A  0000              add [eax],al
0000B92C  0000              add [eax],al
0000B92E  0000              add [eax],al
0000B930  0000              add [eax],al
0000B932  0000              add [eax],al
0000B934  0000              add [eax],al
0000B936  0000              add [eax],al
0000B938  0000              add [eax],al
0000B93A  0000              add [eax],al
0000B93C  0000              add [eax],al
0000B93E  0000              add [eax],al
0000B940  0000              add [eax],al
0000B942  0000              add [eax],al
0000B944  0000              add [eax],al
0000B946  0000              add [eax],al
0000B948  0000              add [eax],al
0000B94A  0000              add [eax],al
0000B94C  0000              add [eax],al
0000B94E  0000              add [eax],al
0000B950  0000              add [eax],al
0000B952  0000              add [eax],al
0000B954  0000              add [eax],al
0000B956  0000              add [eax],al
0000B958  0000              add [eax],al
0000B95A  0000              add [eax],al
0000B95C  0000              add [eax],al
0000B95E  0000              add [eax],al
0000B960  0000              add [eax],al
0000B962  0000              add [eax],al
0000B964  0000              add [eax],al
0000B966  0000              add [eax],al
0000B968  0000              add [eax],al
0000B96A  0000              add [eax],al
0000B96C  0000              add [eax],al
0000B96E  0000              add [eax],al
0000B970  0000              add [eax],al
0000B972  0000              add [eax],al
0000B974  0000              add [eax],al
0000B976  0000              add [eax],al
0000B978  0000              add [eax],al
0000B97A  0000              add [eax],al
0000B97C  0000              add [eax],al
0000B97E  0000              add [eax],al
0000B980  0000              add [eax],al
0000B982  0000              add [eax],al
0000B984  0000              add [eax],al
0000B986  0000              add [eax],al
0000B988  0000              add [eax],al
0000B98A  0000              add [eax],al
0000B98C  0000              add [eax],al
0000B98E  0000              add [eax],al
0000B990  0000              add [eax],al
0000B992  0000              add [eax],al
0000B994  0000              add [eax],al
0000B996  0000              add [eax],al
0000B998  0000              add [eax],al
0000B99A  0000              add [eax],al
0000B99C  0000              add [eax],al
0000B99E  0000              add [eax],al
0000B9A0  0000              add [eax],al
0000B9A2  0000              add [eax],al
0000B9A4  0000              add [eax],al
0000B9A6  0000              add [eax],al
0000B9A8  0000              add [eax],al
0000B9AA  0000              add [eax],al
0000B9AC  0000              add [eax],al
0000B9AE  0000              add [eax],al
0000B9B0  0000              add [eax],al
0000B9B2  0000              add [eax],al
0000B9B4  0000              add [eax],al
0000B9B6  0000              add [eax],al
0000B9B8  0000              add [eax],al
0000B9BA  0000              add [eax],al
0000B9BC  0000              add [eax],al
0000B9BE  0000              add [eax],al
0000B9C0  0000              add [eax],al
0000B9C2  0000              add [eax],al
0000B9C4  0000              add [eax],al
0000B9C6  0000              add [eax],al
0000B9C8  0000              add [eax],al
0000B9CA  0000              add [eax],al
0000B9CC  0000              add [eax],al
0000B9CE  0000              add [eax],al
0000B9D0  0000              add [eax],al
0000B9D2  0000              add [eax],al
0000B9D4  0000              add [eax],al
0000B9D6  0000              add [eax],al
0000B9D8  0000              add [eax],al
0000B9DA  0000              add [eax],al
0000B9DC  0000              add [eax],al
0000B9DE  0000              add [eax],al
0000B9E0  0000              add [eax],al
0000B9E2  0000              add [eax],al
0000B9E4  0000              add [eax],al
0000B9E6  0000              add [eax],al
0000B9E8  0000              add [eax],al
0000B9EA  0000              add [eax],al
0000B9EC  0000              add [eax],al
0000B9EE  0000              add [eax],al
0000B9F0  0000              add [eax],al
0000B9F2  0000              add [eax],al
0000B9F4  0000              add [eax],al
0000B9F6  0000              add [eax],al
0000B9F8  0000              add [eax],al
0000B9FA  0000              add [eax],al
0000B9FC  0000              add [eax],al
0000B9FE  0000              add [eax],al
0000BA00  0000              add [eax],al
0000BA02  0000              add [eax],al
0000BA04  0000              add [eax],al
0000BA06  0000              add [eax],al
0000BA08  0000              add [eax],al
0000BA0A  0000              add [eax],al
0000BA0C  0000              add [eax],al
0000BA0E  0000              add [eax],al
0000BA10  0000              add [eax],al
0000BA12  0000              add [eax],al
0000BA14  0000              add [eax],al
0000BA16  0000              add [eax],al
0000BA18  0000              add [eax],al
0000BA1A  0000              add [eax],al
0000BA1C  0000              add [eax],al
0000BA1E  0000              add [eax],al
0000BA20  0000              add [eax],al
0000BA22  0000              add [eax],al
0000BA24  0000              add [eax],al
0000BA26  0000              add [eax],al
0000BA28  0000              add [eax],al
0000BA2A  0000              add [eax],al
0000BA2C  0000              add [eax],al
0000BA2E  0000              add [eax],al
0000BA30  0000              add [eax],al
0000BA32  0000              add [eax],al
0000BA34  0000              add [eax],al
0000BA36  0000              add [eax],al
0000BA38  0000              add [eax],al
0000BA3A  0000              add [eax],al
0000BA3C  0000              add [eax],al
0000BA3E  0000              add [eax],al
0000BA40  0000              add [eax],al
0000BA42  0000              add [eax],al
0000BA44  0000              add [eax],al
0000BA46  0000              add [eax],al
0000BA48  0000              add [eax],al
0000BA4A  0000              add [eax],al
0000BA4C  0000              add [eax],al
0000BA4E  0000              add [eax],al
0000BA50  0000              add [eax],al
0000BA52  0000              add [eax],al
0000BA54  0000              add [eax],al
0000BA56  0000              add [eax],al
0000BA58  0000              add [eax],al
0000BA5A  0000              add [eax],al
0000BA5C  0000              add [eax],al
0000BA5E  0000              add [eax],al
0000BA60  0000              add [eax],al
0000BA62  0000              add [eax],al
0000BA64  0000              add [eax],al
0000BA66  0000              add [eax],al
0000BA68  0000              add [eax],al
0000BA6A  0000              add [eax],al
0000BA6C  0000              add [eax],al
0000BA6E  0000              add [eax],al
0000BA70  0000              add [eax],al
0000BA72  0000              add [eax],al
0000BA74  0000              add [eax],al
0000BA76  0000              add [eax],al
0000BA78  0000              add [eax],al
0000BA7A  0000              add [eax],al
0000BA7C  0000              add [eax],al
0000BA7E  0000              add [eax],al
0000BA80  0000              add [eax],al
0000BA82  0000              add [eax],al
0000BA84  0000              add [eax],al
0000BA86  0000              add [eax],al
0000BA88  0000              add [eax],al
0000BA8A  0000              add [eax],al
0000BA8C  0000              add [eax],al
0000BA8E  0000              add [eax],al
0000BA90  0000              add [eax],al
0000BA92  0000              add [eax],al
0000BA94  0000              add [eax],al
0000BA96  0000              add [eax],al
0000BA98  0000              add [eax],al
0000BA9A  0000              add [eax],al
0000BA9C  0000              add [eax],al
0000BA9E  0000              add [eax],al
0000BAA0  0000              add [eax],al
0000BAA2  0000              add [eax],al
0000BAA4  0000              add [eax],al
0000BAA6  0000              add [eax],al
0000BAA8  0000              add [eax],al
0000BAAA  0000              add [eax],al
0000BAAC  0000              add [eax],al
0000BAAE  0000              add [eax],al
0000BAB0  0000              add [eax],al
0000BAB2  0000              add [eax],al
0000BAB4  0000              add [eax],al
0000BAB6  0000              add [eax],al
0000BAB8  0000              add [eax],al
0000BABA  0000              add [eax],al
0000BABC  0000              add [eax],al
0000BABE  0000              add [eax],al
0000BAC0  0000              add [eax],al
0000BAC2  0000              add [eax],al
0000BAC4  0000              add [eax],al
0000BAC6  0000              add [eax],al
0000BAC8  0000              add [eax],al
0000BACA  0000              add [eax],al
0000BACC  0000              add [eax],al
0000BACE  0000              add [eax],al
0000BAD0  0000              add [eax],al
0000BAD2  0000              add [eax],al
0000BAD4  0000              add [eax],al
0000BAD6  0000              add [eax],al
0000BAD8  0000              add [eax],al
0000BADA  0000              add [eax],al
0000BADC  0000              add [eax],al
0000BADE  0000              add [eax],al
0000BAE0  0000              add [eax],al
0000BAE2  0000              add [eax],al
0000BAE4  0000              add [eax],al
0000BAE6  0000              add [eax],al
0000BAE8  0000              add [eax],al
0000BAEA  0000              add [eax],al
0000BAEC  0000              add [eax],al
0000BAEE  0000              add [eax],al
0000BAF0  0000              add [eax],al
0000BAF2  0000              add [eax],al
0000BAF4  0000              add [eax],al
0000BAF6  0000              add [eax],al
0000BAF8  0000              add [eax],al
0000BAFA  0000              add [eax],al
0000BAFC  0000              add [eax],al
0000BAFE  0000              add [eax],al
0000BB00  0000              add [eax],al
0000BB02  0000              add [eax],al
0000BB04  0000              add [eax],al
0000BB06  0000              add [eax],al
0000BB08  0000              add [eax],al
0000BB0A  0000              add [eax],al
0000BB0C  0000              add [eax],al
0000BB0E  0000              add [eax],al
0000BB10  0000              add [eax],al
0000BB12  0000              add [eax],al
0000BB14  0000              add [eax],al
0000BB16  0000              add [eax],al
0000BB18  0000              add [eax],al
0000BB1A  0000              add [eax],al
0000BB1C  0000              add [eax],al
0000BB1E  0000              add [eax],al
0000BB20  0000              add [eax],al
0000BB22  0000              add [eax],al
0000BB24  0000              add [eax],al
0000BB26  0000              add [eax],al
0000BB28  0000              add [eax],al
0000BB2A  0000              add [eax],al
0000BB2C  0000              add [eax],al
0000BB2E  0000              add [eax],al
0000BB30  0000              add [eax],al
0000BB32  0000              add [eax],al
0000BB34  0000              add [eax],al
0000BB36  0000              add [eax],al
0000BB38  0000              add [eax],al
0000BB3A  0000              add [eax],al
0000BB3C  0000              add [eax],al
0000BB3E  0000              add [eax],al
0000BB40  0000              add [eax],al
0000BB42  0000              add [eax],al
0000BB44  0000              add [eax],al
0000BB46  0000              add [eax],al
0000BB48  0000              add [eax],al
0000BB4A  0000              add [eax],al
0000BB4C  0000              add [eax],al
0000BB4E  0000              add [eax],al
0000BB50  0000              add [eax],al
0000BB52  0000              add [eax],al
0000BB54  0000              add [eax],al
0000BB56  0000              add [eax],al
0000BB58  0000              add [eax],al
0000BB5A  0000              add [eax],al
0000BB5C  0000              add [eax],al
0000BB5E  0000              add [eax],al
0000BB60  0000              add [eax],al
0000BB62  0000              add [eax],al
0000BB64  0000              add [eax],al
0000BB66  0000              add [eax],al
0000BB68  0000              add [eax],al
0000BB6A  0000              add [eax],al
0000BB6C  0000              add [eax],al
0000BB6E  0000              add [eax],al
0000BB70  0000              add [eax],al
0000BB72  0000              add [eax],al
0000BB74  0000              add [eax],al
0000BB76  0000              add [eax],al
0000BB78  0000              add [eax],al
0000BB7A  0000              add [eax],al
0000BB7C  0000              add [eax],al
0000BB7E  0000              add [eax],al
0000BB80  0000              add [eax],al
0000BB82  0000              add [eax],al
0000BB84  0000              add [eax],al
0000BB86  0000              add [eax],al
0000BB88  0000              add [eax],al
0000BB8A  0000              add [eax],al
0000BB8C  0000              add [eax],al
0000BB8E  0000              add [eax],al
0000BB90  0000              add [eax],al
0000BB92  0000              add [eax],al
0000BB94  0000              add [eax],al
0000BB96  0000              add [eax],al
0000BB98  0000              add [eax],al
0000BB9A  0000              add [eax],al
0000BB9C  0000              add [eax],al
0000BB9E  0000              add [eax],al
0000BBA0  0000              add [eax],al
0000BBA2  0000              add [eax],al
0000BBA4  0000              add [eax],al
0000BBA6  0000              add [eax],al
0000BBA8  0000              add [eax],al
0000BBAA  0000              add [eax],al
0000BBAC  0000              add [eax],al
0000BBAE  0000              add [eax],al
0000BBB0  0000              add [eax],al
0000BBB2  0000              add [eax],al
0000BBB4  0000              add [eax],al
0000BBB6  0000              add [eax],al
0000BBB8  0000              add [eax],al
0000BBBA  0000              add [eax],al
0000BBBC  0000              add [eax],al
0000BBBE  0000              add [eax],al
0000BBC0  0000              add [eax],al
0000BBC2  0000              add [eax],al
0000BBC4  0000              add [eax],al
0000BBC6  0000              add [eax],al
0000BBC8  0000              add [eax],al
0000BBCA  0000              add [eax],al
0000BBCC  0000              add [eax],al
0000BBCE  0000              add [eax],al
